(ccollections
defaultdict
p1
(c__builtin__
list
p2
tRp3
S''
(lp4
S'lang'
p5
aS'vessel'
p6
asS'writings'
p7
(lp8
S'art'
p9
asS'hats'
p10
(lp11
S'prod'
p12
asS'dynasty'
p13
(lp14
S'event'
p15
aS'group'
p16
asS'facilities'
p17
(lp18
g12
asS'Theme'
p19
(lp20
g9
asS'captain'
p21
(lp22
S'prof'
p23
asS'relationships'
p24
(lp25
S'desc'
p26
asS'whose'
p27
(lp28
g23
aS'Who'
p29
asS'moviemaker'
p30
(lp31
g23
asS'painters'
p32
(lp33
S'peop'
p34
ag23
asS'Ranger'
p35
(lp36
g23
asS'bays'
p37
(lp38
S'loca'
p39
asS'worth'
p40
(lp41
S'money'
p42
asS'digit'
p43
(lp44
S'code'
p45
asS'risk'
p46
(lp47
S'act'
p48
asS'oceans'
p49
(lp50
g39
asS'railways'
p51
(lp52
S'comp'
p53
asS'sellers'
p54
(lp55
g53
asS'formula'
p56
(lp57
S'symbol'
p58
asS'affect'
p59
(lp60
S'cause'
p61
aS'eff'
p62
asS'month'
p63
(lp64
S'date'
p65
asS'elevations'
p66
(lp67
S'dist'
p68
asS'school'
p69
(lp70
S'univ'
p71
asS'scholar'
p72
(lp73
g23
asS'crops'
p74
(lp75
S'food'
p76
aS'plant'
p77
asS'plural'
p78
(lp79
S'word'
p80
asS'companies'
p81
(lp82
g53
asS'humidity'
p83
(lp84
S'num'
p85
asS'clothes'
p86
(lp87
g12
asS'chew'
p88
(lp89
g76
asS'force'
p90
(lp91
g16
asS'leaders'
p92
(lp93
g34
ag23
asS'direct'
p94
(lp95
g48
asS'chef'
p96
(lp97
g76
asS'dish'
p98
(lp99
g76
asS'street'
p100
(lp101
g39
asS'amendement'
p102
(lp103
g9
asS'kidnap'
p104
(lp105
g48
asS'preferences'
p106
(lp107
g26
asS'prisons'
p108
(lp109
g39
asS'cooking'
p110
(lp111
g76
asS'contributed'
p112
(lp113
g61
asS'airmen'
p114
(lp115
g34
ag23
asS'supplied'
p116
(lp117
g53
asS'consequent'
p118
(lp119
g62
asS'Game'
p120
(lp121
S'sport'
p122
asS'toll'
p123
(lp124
g85
aS'popu'
p125
asS'supplier'
p126
(lp127
g53
asS'supplies'
p128
(lp129
g53
ag12
asS'tips'
p130
(lp131
S'tech'
p132
asS'contributes'
p133
(lp134
g61
asS'harbors'
p135
(lp136
g39
asS'told'
p137
(lp138
g48
asS'hero'
p139
(lp140
g23
asS'sinks'
p141
(lp142
g6
asS'men'
p143
(lp144
g34
ag23
asS'scroundrel'
p145
(lp146
g23
asS'represented'
p147
(lp148
S'def'
p149
asS'aftermath'
p150
(lp151
g62
asS'celebration'
p152
(lp153
g15
asS'digits'
p154
(lp155
g45
asS'property'
p156
(lp157
g26
asS'daughter'
p158
(lp159
g23
asS'luggage'
p160
(lp161
S'other'
p162
asS'items'
p163
(lp164
g162
asS'leaves'
p165
(lp166
g77
asS'Queen'
p167
(lp168
g23
aS'title'
p169
asS'museums'
p170
(lp171
g39
asS'natures'
p172
(lp173
g26
asS'calculators'
p174
(lp175
g12
asS'adolescents'
p176
(lp177
g34
asS'diameter'
p178
(lp179
g68
asS'shortened'
p180
(lp181
S'abb'
p182
asS'excuse'
p183
(lp184
S'quot'
p185
asS'county'
p186
(lp187
S'city'
p188
ag39
asS'guests'
p189
(lp190
g34
ag23
asS'total'
p191
(lp192
g85
asS'unit'
p193
(lp194
g16
asS'luggages'
p195
(lp196
g162
asS'spoke'
p197
(lp198
g48
ag5
asS'army'
p199
(lp200
g16
ag34
ag23
asS'hospital'
p201
(lp202
g39
asS'B.S.'
p203
(lp204
g169
asS'chooses'
p205
(lp206
g48
asS'symphony'
p207
(lp208
g9
asS'music'
p209
(lp210
g9
asS'tell'
p211
(lp212
g48
asS'fractions'
p213
(lp214
S'perc'
p215
asS'females'
p216
(lp217
g23
asS'wars'
p218
(lp219
g15
asS'reign'
p220
(lp221
g15
asS'phone'
p222
(lp223
g45
asS'championships'
p224
(lp225
g122
asS'organic'
p226
(lp227
S'substance'
p228
asS'shoot'
p229
(lp230
g48
asS'intake'
p231
(lp232
g76
asS'flora'
p233
(lp234
g77
asS'conagions'
p235
(lp236
S'dise'
p237
asS'wore'
p238
(lp239
g48
asS'rights'
p240
(lp241
g26
asS'famed'
p242
(lp243
g15
asS'work'
p244
(lp245
g48
ag9
aS'job'
p246
asS'cardianl'
p247
(lp248
g23
asS'movies'
p249
(lp250
g9
asS'era'
p251
(lp252
g15
asS'sweeter'
p253
(lp254
g76
asS'gallons'
p255
(lp256
S'unit'
p257
asS'entertainer'
p258
(lp259
g53
asS'root'
p260
(lp261
g77
asS'salesman'
p262
(lp263
g23
asS'bandleader'
p264
(lp265
g23
asS'organized'
p266
(lp267
g15
ag16
asS'indicates'
p268
(lp269
g149
ag149
asS'foods'
p270
(lp271
g76
asS'want'
p272
(lp273
g48
ag162
asS'organizes'
p274
(lp275
g16
asS'ceremony'
p276
(lp277
g15
asS'thing'
p278
(lp279
g162
asS'provide'
p280
(lp281
g53
asS'nuts'
p282
(lp283
g76
asS'feature'
p284
(lp285
g9
aS'body'
p286
ag26
asS'comedians'
p287
(lp288
g34
ag23
asS'astronomers'
p289
(lp290
g34
ag23
asS'how'
p291
(lp292
S'How'
p293
asS'hot'
p294
(lp295
S'temp'
p296
asS'cures'
p297
(lp298
g237
asS'Harbors'
p299
(lp300
g39
asS'commonly-spoken'
p301
(lp302
g5
asS'boats'
p303
(lp304
g6
asS'palaces'
p305
(lp306
g39
asS'shortens'
p307
(lp308
g182
asS'beach'
p309
(lp310
g39
asS'pizza'
p311
(lp312
g76
asS'dialect'
p313
(lp314
g5
asS'typed'
p315
(lp316
g48
asS'delicacy'
p317
(lp318
g76
asS'Ocean'
p319
(lp320
g39
asS'fat'
p321
(lp322
g76
asS'president'
p323
(lp324
g23
ag169
asS'mesa'
p325
(lp326
S'mount'
p327
asS'law'
p328
(lp329
g26
asS'types'
p330
(lp331
g48
asS'attempt'
p332
(lp333
g48
ag15
asS'wins'
p334
(lp335
g122
asS'revolt'
p336
(lp337
g15
asS'Japanese'
p338
(lp339
g5
asS'childhood'
p340
(lp341
g26
asS'alias'
p342
(lp343
S'name'
p344
asS'verb'
p345
(lp346
g80
asS'things'
p347
(lp348
g162
asS'fan'
p349
(lp350
g23
asS'detective'
p351
(lp352
g23
asS'athletes'
p353
(lp354
g122
asS'wine'
p355
(lp356
g76
asS'operations'
p357
(lp358
g15
asS'blind'
p359
(lp360
g48
asS'office'
p361
(lp362
g53
asS'numbers'
p363
(lp364
g85
asS'dreamed'
p365
(lp366
g48
asS'expects'
p367
(lp368
g48
asS'synonyms'
p369
(lp370
S'term'
p371
asS'sidekicks'
p372
(lp373
g23
asS'fable'
p374
(lp375
g9
asS'mayor'
p376
(lp377
g23
asS'exporters'
p378
(lp379
g53
asS'writing'
p380
(lp381
g9
asS'plantation'
p382
(lp383
g39
asS'Argentinian'
p384
(lp385
g5
asS'personas'
p386
(lp387
g34
ag23
asS'weeks'
p388
(lp389
g257
asS'affected'
p390
(lp391
g61
ag62
asS'diseases'
p392
(lp393
g237
asS'emigrates'
p394
(lp395
S'country'
p396
asS'prevented'
p397
(lp398
g237
asS'weakness'
p399
(lp400
g26
asS'mixtures'
p401
(lp402
g228
asS'bane'
p403
(lp404
g237
asS'band'
p405
(lp406
g16
asS'linguists'
p407
(lp408
g34
ag23
asS'therapy'
p409
(lp410
g237
asS'effects'
p411
(lp412
g26
ag62
asS'President'
p413
(lp414
g23
ag169
asS'schools'
p415
(lp416
g71
asS'man-made'
p417
(lp418
g39
asS'tourism'
p419
(lp420
g39
asS'represents'
p421
(lp422
g149
ag58
asS'meat'
p423
(lp424
g76
asS'potatoes'
p425
(lp426
g76
asS'crunchy'
p427
(lp428
g76
asS'volcano'
p429
(lp430
g39
ag327
asS'feeds'
p431
(lp432
g76
asS'meal'
p433
(lp434
g76
asS'bone'
p435
(lp436
g286
asS'mean'
p437
(lp438
g182
ag149
asS'expectancy'
p439
(lp440
S'time'
p441
asS'volcanos'
p442
(lp443
g39
asS'observance'
p444
(lp445
g15
asS'snakes'
p446
(lp447
S'anim'
p448
asS'series'
p449
(lp450
g9
ag122
asS'principles'
p451
(lp452
g132
asS'taught'
p453
(lp454
g48
asS'clauses'
p455
(lp456
g26
asS'grandfather'
p457
(lp458
g23
asS'sorcerers'
p459
(lp460
g34
ag23
asS'Netherland'
p461
(lp462
g5
asS'network'
p463
(lp464
g53
asS'dialects'
p465
(lp466
g5
asS'tales'
p467
(lp468
g9
asS'vessels'
p469
(lp470
g286
ag6
asS'fellows'
p471
(lp472
g34
ag23
asS'method'
p473
(lp474
g132
asS'reader'
p475
(lp476
g9
asS'medicine'
p477
(lp478
g237
asS'engineer'
p479
(lp480
g23
asS'associate'
p481
(lp482
g23
asS'immigrates'
p483
(lp484
g396
asS'stipend'
p485
(lp486
g42
asS'wanted'
p487
(lp488
g48
asS'competes'
p489
(lp490
g122
asS'ate'
p491
(lp492
g76
asS'created'
p493
(lp494
g48
ag53
asS'newsmen'
p495
(lp496
g34
ag23
asS'aircrafts'
p497
(lp498
g6
asS'professions'
p499
(lp500
g246
asS'days'
p501
(lp502
g257
asS'creates'
p503
(lp504
g48
ag53
asS'soda'
p505
(lp506
g76
asS'uses'
p507
(lp508
g132
asS'symbolize'
p509
(lp510
g58
asS'loud'
p511
(lp512
g85
asS'speeds'
p513
(lp514
S'speed'
p515
asS'Swahili'
p516
(lp517
g5
asS'fictions'
p518
(lp519
g9
asS'features'
p520
(lp521
g9
ag286
ag26
asS'render'
p522
(lp523
g53
asS'genies'
p524
(lp525
g23
asS'researcher'
p526
(lp527
g23
asS'attractions'
p528
(lp529
g39
asS'hoop'
p530
(lp531
g122
asS'railroads'
p532
(lp533
g53
asS'cookies'
p534
(lp535
g76
asS'maladies'
p536
(lp537
g237
asS'hearing'
p538
(lp539
g26
asS'featured'
p540
(lp541
g9
asS'delicious'
p542
(lp543
g76
asS'knight'
p544
(lp545
g23
asS'bicycle'
p546
(lp547
g6
asS'comic'
p548
(lp549
g9
asS'toy'
p550
(lp551
g12
asS'service'
p552
(lp553
g53
asS'top'
p554
(lp555
g39
asS'engagement'
p556
(lp557
g15
asS'girls'
p558
(lp559
g34
ag23
asS'heights'
p560
(lp561
g68
asS'rates'
p562
(lp563
g215
asS'percentage'
p564
(lp565
g215
asS'legs'
p566
(lp567
g448
ag286
asS'dogs'
p568
(lp569
g448
asS'toe'
p570
(lp571
g286
asS'urban'
p572
(lp573
g188
asS'murder'
p574
(lp575
g48
asS'tool'
p576
(lp577
g162
ag12
asS'villages'
p578
(lp579
g188
asS'serve'
p580
(lp581
g53
asS'cereal'
p582
(lp583
g76
asS'symptom'
p584
(lp585
g237
asS'distance'
p586
(lp587
g68
asS'kidnaps'
p588
(lp589
g48
asS'M.A.'
p590
(lp591
g169
asS'homepages'
p592
(lp593
g39
asS'roles'
p594
(lp595
g23
asS'tree'
p596
(lp597
g77
asS'scenes'
p598
(lp599
g39
asS'nations'
p600
(lp601
g396
asS'project'
p602
(lp603
g15
asS'invention'
p604
(lp605
g132
asS'pathogen'
p606
(lp607
g237
asS'historical'
p608
(lp609
g15
asS'genders'
p610
(lp611
g162
asS'powers'
p612
(lp613
g26
asS'prankster'
p614
(lp615
g23
asS'bridge'
p616
(lp617
g39
asS'conagion'
p618
(lp619
g237
asS'entail'
p620
(lp621
g149
asS'palace'
p622
(lp623
g39
asS'banes'
p624
(lp625
g237
asS'constellations'
p626
(lp627
g39
asS'talking'
p628
(lp629
g48
asS'sportsmen'
p630
(lp631
g34
ag23
asS'seed'
p632
(lp633
g77
asS'shrubs'
p634
(lp635
g77
asS'stomach'
p636
(lp637
g76
asS'corns'
p638
(lp639
g76
asS'tells'
p640
(lp641
g48
asS'expeditions'
p642
(lp643
g122
asS'Christian'
p644
(lp645
g344
asS'responsible'
p646
(lp647
g48
asS'reactivity'
p648
(lp649
g85
asS'niece'
p650
(lp651
g23
asS'forces'
p652
(lp653
g16
asS'chiropodist'
p654
(lp655
g237
asS'Motto'
p656
(lp657
g185
asS'maiden'
p658
(lp659
g344
asS'glands'
p660
(lp661
g286
asS'letter'
p662
(lp663
S'letter'
p664
asS'exercises'
p665
(lp666
g122
asS'pest'
p667
(lp668
g448
asS'explosives'
p669
(lp670
g228
asS'prostitute'
p671
(lp672
g23
asS'dummy'
p673
(lp674
g23
asS'singer'
p675
(lp676
g23
asS'treats'
p677
(lp678
g76
asS'consumed'
p679
(lp680
g76
asS'camp'
p681
(lp682
g39
asS'metal'
p683
(lp684
g228
asS'dog'
p685
(lp686
g448
asS'freeway'
p687
(lp688
g39
asS'competitors'
p689
(lp690
g53
asS'aunt'
p691
(lp692
g23
asS'principle'
p693
(lp694
g132
asS'pineapple'
p695
(lp696
g76
asS'boyfriends'
p697
(lp698
g34
ag23
asS'moviemakers'
p699
(lp700
g34
ag23
asS'consumes'
p701
(lp702
g76
asS'saying'
p703
(lp704
g48
asS'fungal'
p705
(lp706
g237
asS'bomb'
p707
(lp708
g9
asS'pope'
p709
(lp710
g23
asS'sows'
p711
(lp712
g77
asS'visitor'
p713
(lp714
g23
asS'meetings'
p715
(lp716
g15
asS'retire'
p717
(lp718
g48
asS'revolver'
p719
(lp720
g12
asS'religions'
p721
(lp722
S'religion'
p723
asS'colors'
p724
(lp725
S'color'
p726
asS'musicals'
p727
(lp728
g9
asS'nephew'
p729
(lp730
g23
asS'parodies'
p731
(lp732
g9
asS'judges'
p733
(lp734
g34
ag23
asS'flowers'
p735
(lp736
g77
asS'webservers'
p737
(lp738
g53
asS'debts'
p739
(lp740
g42
asS'geniouses'
p741
(lp742
g34
ag23
asS'theme'
p743
(lp744
g9
asS'deepest'
p745
(lp746
g68
asS'rich'
p747
(lp748
g42
asS'gods'
p749
(lp750
g23
asS'announce'
p751
(lp752
g185
asS'boyfriend'
p753
(lp754
g23
asS'product'
p755
(lp756
g12
asS'wearing'
p757
(lp758
g48
asS'do'
p759
(lp760
g26
aS'do'
p761
ag246
asS'exports'
p762
(lp763
g53
asS'mixture'
p764
(lp765
g228
asS'scientists'
p766
(lp767
g34
ag23
asS'vowels'
p768
(lp769
g664
asS'cardinals'
p770
(lp771
g34
ag23
asS'millionaire'
p772
(lp773
g23
asS'bandleaders'
p774
(lp775
g23
asS'handball'
p776
(lp777
g122
asS'new'
p778
(lp779
g26
asS'avenues'
p780
(lp781
g39
asS'societies'
p782
(lp783
g16
asS'bat'
p784
(lp785
g122
asS'bar'
p786
(lp787
g53
asS'countries'
p788
(lp789
g396
ag39
asS'penning'
p790
(lp791
g9
asS'bay'
p792
(lp793
g39
asS'discs'
p794
(lp795
g9
asS'troop'
p796
(lp797
g16
asS'linguist'
p798
(lp799
g23
asS'steal'
p800
(lp801
g42
asS'ailments'
p802
(lp803
g237
asS'ears'
p804
(lp805
g286
asS'decides'
p806
(lp807
g48
asS'disaster'
p808
(lp809
g15
asS'habit'
p810
(lp811
g162
asS'beaten'
p812
(lp813
g122
asS'nun'
p814
(lp815
g23
asS'decided'
p816
(lp817
g48
asS'result'
p818
(lp819
g62
asS'resigned'
p820
(lp821
g48
asS'ficus'
p822
(lp823
g77
asS'said'
p824
(lp825
g48
ag371
asS'Dwarf'
p826
(lp827
g39
ag23
asS'away'
p828
(lp829
g68
asS'prince'
p830
(lp831
g169
asS'narrates'
p832
(lp833
g48
asS'score'
p834
(lp835
g85
asS'discovers'
p836
(lp837
g48
asS'shaver'
p838
(lp839
g12
asS'approach'
p840
(lp841
g132
asS'magnesium'
p842
(lp843
g228
asS'terms'
p844
(lp845
g371
asS'wears'
p846
(lp847
g48
ag162
asS'extend'
p848
(lp849
g68
asS'nature'
p850
(lp851
g26
asS'fruits'
p852
(lp853
g76
ag77
asS'vitamin'
p854
(lp855
g76
asS'laureates'
p856
(lp857
g23
asS'wear'
p858
(lp859
g48
ag162
ag12
asS'extent'
p860
(lp861
g68
asS'visited'
p862
(lp863
g39
asS'motto'
p864
(lp865
g185
asS'debt'
p866
(lp867
g42
asS'improve'
p868
(lp869
g132
asS'ranges'
p870
(lp871
g39
ag327
asS'Celcius'
p872
(lp873
g296
asS'cow'
p874
(lp875
g448
asS'country'
p876
(lp877
g396
ag39
asS'museum'
p878
(lp879
g39
asS'regions'
p880
(lp881
g39
asS'players'
p882
(lp883
g34
ag23
ag122
asS'erupted'
p884
(lp885
g39
asS'games'
p886
(lp887
g122
asS'desks'
p888
(lp889
g12
asS'photographer'
p890
(lp891
g23
asS'distinction'
p892
(lp893
g26
asS'contribution'
p894
(lp895
g26
asS'Yankee'
p896
(lp897
g23
asS'asked'
p898
(lp899
g48
asS'emporium'
p900
(lp901
g53
asS'abbreviate'
p902
(lp903
g182
asS'Euros'
p904
(lp905
g257
asS'blonds'
p906
(lp907
g34
asS'height'
p908
(lp909
g68
asS'cult'
p910
(lp911
g723
asS'canyon'
p912
(lp913
g39
asS'blonde'
p914
(lp915
g23
asS'speak'
p916
(lp917
g48
ag5
aS'speak'
p918
asS'asks'
p919
(lp920
g48
asS'steamboat'
p921
(lp922
g6
asS'submarine'
p923
(lp924
g6
asS'beer'
p925
(lp926
g76
asS'much'
p927
(lp928
g85
asS'stadium'
p929
(lp930
g39
asS'expected'
p931
(lp932
g48
asS'fry'
p933
(lp934
g76
asS'tallest'
p935
(lp936
g68
ag327
asS'plateau'
p937
(lp938
g327
asS'website'
p939
(lp940
g39
asS'premier'
p941
(lp942
g23
asS'families'
p943
(lp944
g23
asS'drugs'
p945
(lp946
g237
asS'quantities'
p947
(lp948
g85
asS'enterprises'
p949
(lp950
g53
asS'generals'
p951
(lp952
g34
ag23
asS'child'
p953
(lp954
g23
asS'intakes'
p955
(lp956
g76
asS'livestocks'
p957
(lp958
g448
asS'Secretary'
p959
(lp960
g23
ag169
asS'physician'
p961
(lp962
g23
asS'tastes'
p963
(lp964
g76
asS'aim'
p965
(lp966
g61
asS'near'
p967
(lp968
g39
asS'teachers'
p969
(lp970
g34
ag23
asS'aid'
p971
(lp972
g132
asS'murders'
p973
(lp974
g48
asS'procedure'
p975
(lp976
g132
asS'rent'
p977
(lp978
g42
asS'full'
p979
(lp980
g344
asS'played'
p981
(lp982
g48
ag9
asS'is'
p983
(lp984
S'be'
p985
aS'presentBe'
p986
aS'singleBe'
p987
asS'accessories'
p988
(lp989
g12
ag132
asS'defeated'
p990
(lp991
g48
asS'player'
p992
(lp993
g23
ag122
asS'straits'
p994
(lp995
g39
asS'cans'
p996
(lp997
g12
asS'in'
p998
(lp999
S'In'
p1000
aS'InOn'
p1001
ag371
asS'sells'
p1002
(lp1003
g53
ag42
asS'grown'
p1004
(lp1005
g77
asS'cockatoos'
p1006
(lp1007
g448
asS'perform'
p1008
(lp1009
g246
asS'occurrances'
p1010
(lp1011
g15
asS'make'
p1012
(lp1013
g61
ag53
asS'amount'
p1014
(lp1015
g42
ag85
asS'beside'
p1016
(lp1017
g39
asS'damages'
p1018
(lp1019
g237
asS'babies'
p1020
(lp1021
g34
ag23
asS'addressees'
p1022
(lp1023
g34
ag23
asS'vegetable'
p1024
(lp1025
g76
ag77
asS'monarch'
p1026
(lp1027
g23
asS'colonies'
p1028
(lp1029
g39
asS'grows'
p1030
(lp1031
g77
asS'inventors'
p1032
(lp1033
g34
ag23
asS'satellite'
p1034
(lp1035
g162
ag12
asS'peaks'
p1036
(lp1037
g39
ag327
asS'governors'
p1038
(lp1039
g34
ag23
asS'photographers'
p1040
(lp1041
g34
ag23
asS'waterfall'
p1042
(lp1043
g39
asS'producers'
p1044
(lp1045
g53
asS'characters'
p1046
(lp1047
g34
ag23
asS'supper'
p1048
(lp1049
g76
asS'ells'
p1050
(lp1051
g257
asS'headquarters'
p1052
(lp1053
g39
asS'tune'
p1054
(lp1055
g9
asS'kid'
p1056
(lp1057
g23
asS'butter'
p1058
(lp1059
g76
asS'condiments'
p1060
(lp1061
g76
asS'programs'
p1062
(lp1063
g9
ag15
asS'peacocks'
p1064
(lp1065
g448
asS'game'
p1066
(lp1067
g122
asS'ocean'
p1068
(lp1069
g39
asS'materials'
p1070
(lp1071
g228
asS'mother'
p1072
(lp1073
g23
asS'claims'
p1074
(lp1075
g42
asS'camps'
p1076
(lp1077
g39
asS'musical'
p1078
(lp1079
g9
asS'leagues'
p1080
(lp1081
g16
asS'yen'
p1082
(lp1083
g257
asS'athletic'
p1084
(lp1085
g122
ag122
asS'photo'
p1086
(lp1087
g9
asS'distribute'
p1088
(lp1089
g53
asS'parks'
p1090
(lp1091
g39
asS'portrayed'
p1092
(lp1093
g48
asS'buyers'
p1094
(lp1095
g53
asS'hills'
p1096
(lp1097
g327
asS'Oscar'
p1098
(lp1099
g9
asS'thick'
p1100
(lp1101
g68
asS'character'
p1102
(lp1103
g23
asS'neoplasm'
p1104
(lp1105
g237
asS'overthrown'
p1106
(lp1107
g15
asS'prison'
p1108
(lp1109
g39
asS'fares'
p1110
(lp1111
g42
asS'hat'
p1112
(lp1113
g12
asS'actresses'
p1114
(lp1115
g34
ag23
asS'elevation'
p1116
(lp1117
g68
asS'bands'
p1118
(lp1119
g16
asS'cultural'
p1120
(lp1121
S'culture'
p1122
ag16
asS'boxer'
p1123
(lp1124
g23
asS'judge'
p1125
(lp1126
g23
asS'authorship'
p1127
(lp1128
g9
asS'designers'
p1129
(lp1130
g34
ag23
asS'dreams'
p1131
(lp1132
g48
asS'cool'
p1133
(lp1134
g296
asS'zoos'
p1135
(lp1136
g39
asS'steps'
p1137
(lp1138
g26
asS'officer'
p1139
(lp1140
g23
asS'Prince'
p1141
(lp1142
g169
asS'Swedish'
p1143
(lp1144
g5
asS'battlefield'
p1145
(lp1146
g39
asS'attorney'
p1147
(lp1148
g23
asS'right'
p1149
(lp1150
g26
asS'old'
p1151
(lp1152
g441
asS'deal'
p1153
(lp1154
g53
ag26
asS'people'
p1155
(lp1156
g34
ag23
asS'Peanut'
p1157
(lp1158
g76
asS'dead'
p1159
(lp1160
g61
asS'Stokavian'
p1161
(lp1162
g5
asS'born'
p1163
(lp1164
g39
asS'clubs'
p1165
(lp1166
g53
asS'meters'
p1167
(lp1168
g162
ag257
asS'advertise'
p1169
(lp1170
g53
asS'enemies'
p1171
(lp1172
g34
ag23
asS'friend'
p1173
(lp1174
g23
asS'Dutchess'
p1175
(lp1176
g169
asS'for'
p1177
(lp1178
g61
asS'crowns'
p1179
(lp1180
g257
asS'conservationists'
p1181
(lp1182
g34
ag23
asS'Rockefellers'
p1183
(lp1184
g23
asS'pantyhose'
p1185
(lp1186
g12
asS'offices'
p1187
(lp1188
g53
asS'corn'
p1189
(lp1190
g76
asS'graduates'
p1191
(lp1192
g71
asS'translated'
p1193
(lp1194
g371
asS'protagonist'
p1195
(lp1196
g23
asS'graduated'
p1197
(lp1198
g71
asS'Emperor'
p1199
(lp1200
g23
ag169
asS'bury'
p1201
(lp1202
g48
asS'properties'
p1203
(lp1204
g26
asS'chapter'
p1205
(lp1206
S'ord'
p1207
asS'cowboy'
p1208
(lp1209
g23
asS'disorder'
p1210
(lp1211
g237
asS'dollars'
p1212
(lp1213
g42
ag257
asS'months'
p1214
(lp1215
g65
ag257
asS'dinner'
p1216
(lp1217
g76
asS'islands'
p1218
(lp1219
g39
asS'efforts'
p1220
(lp1221
g61
asS'pineapples'
p1222
(lp1223
g76
asS'statements'
p1224
(lp1225
g26
asS'facility'
p1226
(lp1227
g12
asS'pays'
p1228
(lp1229
g42
asS'puzzle'
p1230
(lp1231
g162
asS'Djiirbal'
p1232
(lp1233
g5
asS'profession'
p1234
(lp1235
g246
asS'appoints'
p1236
(lp1237
g48
asS'son'
p1238
(lp1239
g23
asS'prisoner'
p1240
(lp1241
g23
asS'magazines'
p1242
(lp1243
g9
asS'sow'
p1244
(lp1245
g77
asS'Korean'
p1246
(lp1247
g5
asS'emigrate'
p1248
(lp1249
g396
asS'sportscaster'
p1250
(lp1251
g23
asS'shuttles'
p1252
(lp1253
g6
asS'sculptress'
p1254
(lp1255
g23
asS'initial'
p1256
(lp1257
g182
ag664
asS'payment'
p1258
(lp1259
g42
asS'width'
p1260
(lp1261
g68
asS'lyrics'
p1262
(lp1263
g185
asS'editor'
p1264
(lp1265
g169
asS'fraction'
p1266
(lp1267
g215
asS'resulted'
p1268
(lp1269
g62
asS'gin'
p1270
(lp1271
g76
asS'was'
p1272
(lp1273
g985
aS'pastBe'
p1274
ag987
asS'war'
p1275
(lp1276
g15
asS'lowest'
p1277
(lp1278
g68
asS'head'
p1279
(lp1280
g23
asS'medium'
p1281
(lp1282
g9
asS'offer'
p1283
(lp1284
g53
asS'attempted'
p1285
(lp1286
g48
asS'tigers'
p1287
(lp1288
g448
asS'differences'
p1289
(lp1290
g26
asS'garments'
p1291
(lp1292
g12
asS'hear'
p1293
(lp1294
g26
asS'truquoise'
p1295
(lp1296
g228
asS'portions'
p1297
(lp1298
g215
asS'builds'
p1299
(lp1300
g48
ag53
ag39
asS'entertainers'
p1301
(lp1302
g53
asS'Whom'
p1303
(lp1304
g29
asS'prevents'
p1305
(lp1306
g237
asS'maximum'
p1307
(lp1308
g85
asS'devices'
p1309
(lp1310
g162
ag12
asS'translations'
p1311
(lp1312
g371
asS'apostles'
p1313
(lp1314
g23
asS'cancers'
p1315
(lp1316
g237
asS'pesos'
p1317
(lp1318
g257
asS'Butter'
p1319
(lp1320
g76
asS'classic'
p1321
(lp1322
g9
asS'constructer'
p1323
(lp1324
g53
asS'markswoman'
p1325
(lp1326
g23
asS'tournament'
p1327
(lp1328
g122
asS'gland'
p1329
(lp1330
g286
asS'exist'
p1331
(lp1332
g39
asS'ship'
p1333
(lp1334
g6
asS'distributions'
p1335
(lp1336
g39
asS'dealer'
p1337
(lp1338
g53
asS'constructed'
p1339
(lp1340
g53
asS'aunts'
p1341
(lp1342
g34
ag23
asS'tip'
p1343
(lp1344
g132
asS'actor'
p1345
(lp1346
g23
asS'tin'
p1347
(lp1348
g228
asS'setting'
p1349
(lp1350
g26
asS'role'
p1351
(lp1352
g23
asS'developers'
p1353
(lp1354
g53
asS'dynasties'
p1355
(lp1356
g15
ag16
asS'pseudonym'
p1357
(lp1358
g344
asS'picture'
p1359
(lp1360
g9
asS'exporter'
p1361
(lp1362
g53
asS'brothers'
p1363
(lp1364
g34
ag23
asS'models'
p1365
(lp1366
g12
ag23
asS'waterways'
p1367
(lp1368
g39
asS'why'
p1369
(lp1370
S'Why'
p1371
asS'football'
p1372
(lp1373
g122
asS'webserver'
p1374
(lp1375
g53
asS'exported'
p1376
(lp1377
g53
asS'ridges'
p1378
(lp1379
g39
ag327
asS'scores'
p1380
(lp1381
g85
asS'transporter'
p1382
(lp1383
g53
asS'pizzas'
p1384
(lp1385
g76
asS'potato'
p1386
(lp1387
g76
asS'painting'
p1388
(lp1389
g9
asS'yacht'
p1390
(lp1391
g6
asS'warm'
p1392
(lp1393
g296
asS'time'
p1394
(lp1395
g65
ag441
asS'quantity'
p1396
(lp1397
g85
asS'songs'
p1398
(lp1399
g9
asS'peacock'
p1400
(lp1401
g448
asS'coach'
p1402
(lp1403
g23
asS'chain'
p1404
(lp1405
g53
asS'dance'
p1406
(lp1407
g48
asS'fabricated'
p1408
(lp1409
g53
asS'invent'
p1410
(lp1411
g48
asS'horseback'
p1412
(lp1413
g122
asS'themes'
p1414
(lp1415
g9
asS'manager'
p1416
(lp1417
g23
asS'skin'
p1418
(lp1419
g286
asS'battle'
p1420
(lp1421
g15
asS'chair'
p1422
(lp1423
g23
asS'milk'
p1424
(lp1425
g76
asS'foreshortened'
p1426
(lp1427
g182
asS'disorders'
p1428
(lp1429
g237
asS'technique'
p1430
(lp1431
g132
asS'father'
p1432
(lp1433
g23
asS'hamlets'
p1434
(lp1435
g188
asS'charge'
p1436
(lp1437
g42
asS'marks'
p1438
(lp1439
g58
ag257
asS'suffered'
p1440
(lp1441
g237
asS'veterans'
p1442
(lp1443
g34
ag23
asS'Day'
p1444
(lp1445
g65
asS'yards'
p1446
(lp1447
g257
asS'occurrance'
p1448
(lp1449
g15
asS'artwork'
p1450
(lp1451
g9
asS'cook'
p1452
(lp1453
g76
ag23
asS'word'
p1454
(lp1455
g80
asS'corp.'
p1456
(lp1457
g53
asS'Where'
p1458
(lp1459
S'Where'
p1460
asS'room'
p1461
(lp1462
g39
asS'cooks'
p1463
(lp1464
g76
ag34
ag23
asS'did'
p1465
(lp1466
g761
asS'turns'
p1467
(lp1468
g62
ag39
asS'gun'
p1469
(lp1470
g12
asS'temple'
p1471
(lp1472
g39
asS'crustacean'
p1473
(lp1474
g448
asS'subway'
p1475
(lp1476
g39
asS'guitars'
p1477
(lp1478
S'instrument'
p1479
ag12
asS'team'
p1480
(lp1481
g16
asS'quick'
p1482
(lp1483
S'fast'
p1484
ag515
asS'guy'
p1485
(lp1486
g23
asS'teenager'
p1487
(lp1488
g23
asS'dip'
p1489
(lp1490
g76
asS'anesthetic'
p1491
(lp1492
g237
asS'prevent'
p1493
(lp1494
g237
asS'talked'
p1495
(lp1496
g48
asS'says'
p1497
(lp1498
g48
ag185
ag371
asS'temples'
p1499
(lp1500
g39
asS'Boy'
p1501
(lp1502
g23
asS'discover'
p1503
(lp1504
g48
asS'sign'
p1505
(lp1506
g48
ag58
asS'Romance'
p1507
(lp1508
g5
asS'cost'
p1509
(lp1510
g42
asS'bacterial'
p1511
(lp1512
g237
asS'port'
p1513
(lp1514
g188
asS'drinks'
p1515
(lp1516
g76
asS'hymn'
p1517
(lp1518
g9
asS'educate'
p1519
(lp1520
g71
asS'stands'
p1521
(lp1522
g182
ag149
aS'stand'
p1523
asS'univerisity'
p1524
(lp1525
g71
asS'contracted'
p1526
(lp1527
g182
asS'suspect'
p1528
(lp1529
g23
asS'reply'
p1530
(lp1531
g48
asS'celebrates'
p1532
(lp1533
g15
asS'dwarf'
p1534
(lp1535
g39
ag23
asS'Age'
p1536
(lp1537
g15
asS'shape'
p1538
(lp1539
g162
asS'baseball'
p1540
(lp1541
g122
asS'groups'
p1542
(lp1543
g16
asS'English'
p1544
(lp1545
g5
asS'along'
p1546
(lp1547
g39
asS'teaches'
p1548
(lp1549
g48
asS'teacher'
p1550
(lp1551
g23
asS'softwares'
p1552
(lp1553
g9
asS'boy'
p1554
(lp1555
g23
asS'institute'
p1556
(lp1557
g71
ag71
asS'convict'
p1558
(lp1559
g23
asS'commonly'
p1560
(lp1561
g5
asS'trial'
p1562
(lp1563
g15
asS'accomplished'
p1564
(lp1565
g48
asS'birthstone'
p1566
(lp1567
g26
ag228
asS'winner'
p1568
(lp1569
g48
ag23
asS'love'
p1570
(lp1571
g48
asS'hostages'
p1572
(lp1573
g34
ag23
asS'retires'
p1574
(lp1575
g48
asS'market'
p1576
(lp1577
g53
ag53
asS'hotels'
p1578
(lp1579
g39
asS'flavors'
p1580
(lp1581
g76
asS'troops'
p1582
(lp1583
g16
asS'Hungarian'
p1584
(lp1585
g5
asS'resigns'
p1586
(lp1587
g48
asS'sports'
p1588
(lp1589
g122
asS'Tiger'
p1590
(lp1591
g448
asS'territories'
p1592
(lp1593
g39
asS'live'
p1594
(lp1595
g39
asS'films'
p1596
(lp1597
g9
asS'francs'
p1598
(lp1599
g257
asS'creams'
p1600
(lp1601
g76
asS'prosecutor'
p1602
(lp1603
g23
asS'commissioner'
p1604
(lp1605
g23
asS'galleries'
p1606
(lp1607
g39
asS'conductor'
p1608
(lp1609
g23
asS'club'
p1610
(lp1611
g53
asS'plantations'
p1612
(lp1613
g39
asS'rendered'
p1614
(lp1615
g53
asS'prophecy'
p1616
(lp1617
g185
asS'effort'
p1618
(lp1619
g61
asS'easiest'
p1620
(lp1621
g132
asS'fly'
p1622
(lp1623
g448
asS'Duke'
p1624
(lp1625
g169
asS'skaters'
p1626
(lp1627
g23
asS'Pope'
p1628
(lp1629
g23
asS'defeats'
p1630
(lp1631
g48
asS'German'
p1632
(lp1633
g5
asS'car'
p1634
(lp1635
g12
asS'longitude'
p1636
(lp1637
g85
asS'cat'
p1638
(lp1639
g448
asS'sour'
p1640
(lp1641
g76
asS'incidents'
p1642
(lp1643
g15
asS'can'
p1644
(lp1645
g12
asS'believed'
p1646
(lp1647
g26
asS'fauna'
p1648
(lp1649
g448
asS'pickle'
p1650
(lp1651
g76
asS'breeds'
p1652
(lp1653
g448
asS'claim'
p1654
(lp1655
g61
ag42
asS'citizens'
p1656
(lp1657
g23
asS'figure'
p1658
(lp1659
g48
ag23
asS'Vietnamese'
p1660
(lp1661
g5
asS'frogs'
p1662
(lp1663
g448
asS'restaurants'
p1664
(lp1665
g53
ag39
asS'millionaires'
p1666
(lp1667
g34
ag23
asS'heard'
p1668
(lp1669
g26
asS'stroke'
p1670
(lp1671
g132
asS'Dutch'
p1672
(lp1673
g5
asS'clothing'
p1674
(lp1675
g12
asS'occur'
p1676
(lp1677
g15
asS'orgin'
p1678
(lp1679
g26
asS'requirements'
p1680
(lp1681
g26
asS'Who'
p1682
(lp1683
g29
asS'magazine'
p1684
(lp1685
g9
asS'chemical'
p1686
(lp1687
g237
ag228
asS'hostage'
p1688
(lp1689
g23
asS'skater'
p1690
(lp1691
g23
asS'elephant'
p1692
(lp1693
g448
asS'kitchenwares'
p1694
(lp1695
g162
asS'speaks'
p1696
(lp1697
g48
ag5
ag918
asS'revolted'
p1698
(lp1699
g15
asS'map'
p1700
(lp1701
g39
asS'Germanic'
p1702
(lp1703
g5
asS'designer'
p1704
(lp1705
g23
asS'explorer'
p1706
(lp1707
g23
asS'cocktail'
p1708
(lp1709
g76
asS'influenced'
p1710
(lp1711
g62
asS'structure'
p1712
(lp1713
g162
asS'rites'
p1714
(lp1715
g15
asS'accessory'
p1716
(lp1717
g12
ag132
asS'conjugations'
p1718
(lp1719
g371
asS'applications'
p1720
(lp1721
g26
asS'produce'
p1722
(lp1723
g53
asS'designed'
p1724
(lp1725
g48
asS'date'
p1726
(lp1727
g65
asS'heroes'
p1728
(lp1729
g34
ag23
asS'guys'
p1730
(lp1731
g34
ag23
asS'lacked'
p1732
(lp1733
g162
asS'man'
p1734
(lp1735
g23
asS'archenemies'
p1736
(lp1737
g34
ag23
asS'noun'
p1738
(lp1739
g80
asS'salary'
p1740
(lp1741
g42
asS'liquid'
p1742
(lp1743
g228
asS'candles'
p1744
(lp1745
g12
asS'preacher'
p1746
(lp1747
g23
asS'tale'
p1748
(lp1749
g9
asS'youngster'
p1750
(lp1751
g23
asS'tall'
p1752
(lp1753
g68
asS'talk'
p1754
(lp1755
g48
ag5
asS'bush'
p1756
(lp1757
g77
asS'distributors'
p1758
(lp1759
g53
asS'furnished'
p1760
(lp1761
g53
asS'cathedral'
p1762
(lp1763
g39
asS'writers'
p1764
(lp1765
g34
ag23
asS'damage'
p1766
(lp1767
g237
asS'professors'
p1768
(lp1769
g34
ag23
asS'course'
p1770
(lp1771
g122
asS'lyric'
p1772
(lp1773
g185
asS'razors'
p1774
(lp1775
g12
asS'cold'
p1776
(lp1777
g296
asS'birds'
p1778
(lp1779
g448
asS'group'
p1780
(lp1781
g16
asS'birthdays'
p1782
(lp1783
g65
asS'attraction'
p1784
(lp1785
g39
asS'offers'
p1786
(lp1787
g53
asS'dwarfs'
p1788
(lp1789
g39
ag23
asS'policy'
p1790
(lp1791
g16
asS'areas'
p1792
(lp1793
g39
asS'decades'
p1794
(lp1795
g257
asS'prisoners'
p1796
(lp1797
g34
ag23
asS'happened'
p1798
(lp1799
g26
ag15
asS'matches'
p1800
(lp1801
g122
asS'killer'
p1802
(lp1803
g23
asS'amendements'
p1804
(lp1805
g9
asS'nation'
p1806
(lp1807
g396
asS'lunch'
p1808
(lp1809
g76
asS'tails'
p1810
(lp1811
g448
asS'Ecuadoran'
p1812
(lp1813
g5
asS'killed'
p1814
(lp1815
g61
asS'battlefields'
p1816
(lp1817
g39
asS'term'
p1818
(lp1819
g371
asS'attorneys'
p1820
(lp1821
g34
ag23
asS'airman'
p1822
(lp1823
g23
asS'opera'
p1824
(lp1825
g9
asS'artist'
p1826
(lp1827
g23
asS'invents'
p1828
(lp1829
g48
asS'bats'
p1830
(lp1831
g122
asS'concerts'
p1832
(lp1833
g15
asS'square'
p1834
(lp1835
g39
asS'ailment'
p1836
(lp1837
g237
asS'elephants'
p1838
(lp1839
g448
asS'year'
p1840
(lp1841
g65
asS'distributor'
p1842
(lp1843
g53
asS'territory'
p1844
(lp1845
g39
asS'happen'
p1846
(lp1847
g26
ag15
ag39
asS'pills'
p1848
(lp1849
g237
asS'album'
p1850
(lp1851
g9
asS'living'
p1852
(lp1853
g246
asS'accomplish'
p1854
(lp1855
g48
asS'space'
p1856
(lp1857
S'dimen'
p1858
ag1858
asS'Norwegian'
p1859
(lp1860
g5
asS'miles'
p1861
(lp1862
g257
asS'overlook'
p1863
(lp1864
g39
asS'kidnaped'
p1865
(lp1866
g48
asS'squares'
p1867
(lp1868
g39
asS'shows'
p1869
(lp1870
g9
asS'maneuver'
p1871
(lp1872
g132
asS'prostitutes'
p1873
(lp1874
g34
ag23
asS'trilogies'
p1875
(lp1876
g9
asS'spies'
p1877
(lp1878
g34
ag23
asS'jockey'
p1879
(lp1880
g23
asS'trademarks'
p1881
(lp1882
g53
ag58
asS'explorers'
p1883
(lp1884
g34
ag34
ag23
asS'card'
p1885
(lp1886
g122
asS'language'
p1887
(lp1888
g5
asS'widths'
p1889
(lp1890
g68
asS'motion'
p1891
(lp1892
g9
asS'turn'
p1893
(lp1894
g62
ag39
asS'place'
p1895
(lp1896
g15
ag39
ag39
asS'superstars'
p1897
(lp1898
g34
ag23
asS'think'
p1899
(lp1900
g48
asS'first'
p1901
(lp1902
g15
ag344
asS'origin'
p1903
(lp1904
g26
asS'tennis'
p1905
(lp1906
g122
asS'spoken'
p1907
(lp1908
g5
ag918
asS'clause'
p1909
(lp1910
g26
asS'ISP'
p1911
(lp1912
g53
asS'hockeys'
p1913
(lp1914
g122
asS'commissioners'
p1915
(lp1916
g34
ag23
asS'long'
p1917
(lp1918
g68
ag441
asS'uncle'
p1919
(lp1920
g23
asS'corporations'
p1921
(lp1922
g53
asS'drove'
p1923
(lp1924
g48
asS'size'
p1925
(lp1926
g1858
ag125
asS'rented'
p1927
(lp1928
g42
asS'city'
p1929
(lp1930
g188
ag39
asS'breed'
p1931
(lp1932
g448
asS'indicate'
p1933
(lp1934
g149
asS'structures'
p1935
(lp1936
g162
asS'speaking'
p1937
(lp1938
g48
asS'festivity'
p1939
(lp1940
g15
asS'eyes'
p1941
(lp1942
g286
asS'Scholar'
p1943
(lp1944
g23
asS'season'
p1945
(lp1946
g65
asS'sequels'
p1947
(lp1948
g9
asS'pathogens'
p1949
(lp1950
g237
asS'Minister'
p1951
(lp1952
g169
asS'copy'
p1953
(lp1954
g9
asS'Inc.'
p1955
(lp1956
g53
asS'population'
p1957
(lp1958
g85
ag125
asS'wide'
p1959
(lp1960
g68
asS'gangster'
p1961
(lp1962
g23
asS'computer'
p1963
(lp1964
g9
ag12
asS'apples'
p1965
(lp1966
g76
asS'centigrade'
p1967
(lp1968
g296
asS'were'
p1969
(lp1970
g985
ag1274
asS'cards'
p1971
(lp1972
g122
asS'poisoning'
p1973
(lp1974
g237
asS'outcome'
p1975
(lp1976
g26
ag62
asS'declares'
p1977
(lp1978
g48
ag185
asS'files'
p1979
(lp1980
g162
asS'buries'
p1981
(lp1982
g48
asS'illness'
p1983
(lp1984
g237
asS'surname'
p1985
(lp1986
g344
asS'novelists'
p1987
(lp1988
g34
ag23
asS'occupies'
p1989
(lp1990
g246
asS'turned'
p1991
(lp1992
g62
ag39
asS'locations'
p1993
(lp1994
g39
asS'eats'
p1995
(lp1996
g76
asS'Field'
p1997
(lp1998
g39
asS'say'
p1999
(lp2000
g48
ag185
ag371
asS'comedian'
p2001
(lp2002
g23
asS'buried'
p2003
(lp2004
g48
ag39
asS'horsepower'
p2005
(lp2006
g85
asS'breakfast'
p2007
(lp2008
g76
asS'marathon'
p2009
(lp2010
g122
asS'speakers'
p2011
(lp2012
g5
ag34
ag23
asS'efficient'
p2013
(lp2014
g132
asS'veteran'
p2015
(lp2016
g23
asS'manufacturers'
p2017
(lp2018
g53
asS'aside'
p2019
(lp2020
g39
asS'zoo'
p2021
(lp2022
g39
asS'equipment'
p2023
(lp2024
g162
ag12
asS'take'
p2025
(lp2026
g441
asS'performance'
p2027
(lp2028
g15
asS'formulas'
p2029
(lp2030
g58
asS'Name'
p2031
(lp2032
S'What'
p2033
asS'track'
p2034
(lp2035
g122
asS'cathedrals'
p2036
(lp2037
g39
asS'price'
p2038
(lp2039
g42
asS'knew'
p2040
(lp2041
g48
asS'molecule'
p2042
(lp2043
g228
asS'paid'
p2044
(lp2045
g42
asS'falls'
p2046
(lp2047
g39
asS'visitors'
p2048
(lp2049
g34
ag23
asS'furlongs'
p2050
(lp2051
g257
asS'queens'
p2052
(lp2053
g34
ag23
asS'Portuguese'
p2054
(lp2055
g5
asS'synonym'
p2056
(lp2057
g371
asS'Ms.'
p2058
(lp2059
g169
asS'considered'
p2060
(lp2061
g26
asS'dream'
p2062
(lp2063
g48
asS'average'
p2064
(lp2065
g42
ag85
asS'sidekick'
p2066
(lp2067
g23
asS'infections'
p2068
(lp2069
g237
asS'drive'
p2070
(lp2071
g48
ag61
asS'Chancellor'
p2072
(lp2073
g169
asS'penned'
p2074
(lp2075
g48
asS'laws'
p2076
(lp2077
g26
asS'slope'
p2078
(lp2079
g327
asS'rating'
p2080
(lp2081
g215
asS'shot'
p2082
(lp2083
g48
asS'show'
p2084
(lp2085
g9
asS'cockers'
p2086
(lp2087
g448
asS'discovered'
p2088
(lp2089
g48
asS'bright'
p2090
(lp2091
g85
asS'line'
p2092
(lp2093
g53
ag185
asS'ground'
p2094
(lp2095
g61
asS'weapons'
p2096
(lp2097
g162
ag12
asS'snack'
p2098
(lp2099
g76
asS'ratio'
p2100
(lp2101
g215
asS'gulf'
p2102
(lp2103
g39
asS'title'
p2104
(lp2105
g9
ag246
ag371
ag169
asS'proportion'
p2106
(lp2107
g215
asS'state'
p2108
(lp2109
g39
aS'state'
p2110
asS'black'
p2111
(lp2112
g23
asS'hockey'
p2113
(lp2114
g122
asS'inventions'
p2115
(lp2116
g132
asS'GDP'
p2117
(lp2118
g42
asS'uncles'
p2119
(lp2120
g34
ag23
asS'contracts'
p2121
(lp2122
g182
asS'killers'
p2123
(lp2124
g34
ag23
asS'Tagalog'
p2125
(lp2126
g5
asS'chairmen'
p2127
(lp2128
g34
ag23
asS'savoury'
p2129
(lp2130
g76
asS'primates'
p2131
(lp2132
g448
asS'celebrate'
p2133
(lp2134
g15
asS'verdicts'
p2135
(lp2136
g26
asS'resource'
p2137
(lp2138
g162
asS'girl'
p2139
(lp2140
g23
asS'settings'
p2141
(lp2142
g26
asS'communicates'
p2143
(lp2144
g5
asS'slaughters'
p2145
(lp2146
g15
asS'excuses'
p2147
(lp2148
g185
asS'scientist'
p2149
(lp2150
g23
asS'clowns'
p2151
(lp2152
g34
ag23
asS'bombs'
p2153
(lp2154
g9
asS'where'
p2155
(lp2156
g1460
asS'husband'
p2157
(lp2158
g23
asS'crystal'
p2159
(lp2160
g228
asS'declared'
p2161
(lp2162
g48
ag185
asS'concert'
p2163
(lp2164
g15
asS'seas'
p2165
(lp2166
g39
asS'signs'
p2167
(lp2168
g48
ag58
asS'relative'
p2169
(lp2170
g23
asS'elected'
p2171
(lp2172
g48
asS'college'
p2173
(lp2174
g71
asS'characterstics'
p2175
(lp2176
g26
asS'seal'
p2177
(lp2178
g448
asS'collects'
p2179
(lp2180
g162
asS'sport'
p2181
(lp2182
g122
asS'wonder'
p2183
(lp2184
g26
asS'suspects'
p2185
(lp2186
g34
ag23
asS'compounds'
p2187
(lp2188
g228
asS'ways'
p2189
(lp2190
g132
asS'feuds'
p2191
(lp2192
g15
asS'sites'
p2193
(lp2194
g39
asS'vaccines'
p2195
(lp2196
g237
asS'behind'
p2197
(lp2198
g39
asS'bureau'
p2199
(lp2200
g16
asS'gases'
p2201
(lp2202
g228
asS'chews'
p2203
(lp2204
g76
asS'Thai'
p2205
(lp2206
g5
asS'dummies'
p2207
(lp2208
g23
asS'therapies'
p2209
(lp2210
g237
asS'jobs'
p2211
(lp2212
g246
asS'Harbor'
p2213
(lp2214
g39
asS'guitar'
p2215
(lp2216
g1479
ag12
asS'Burmese'
p2217
(lp2218
g5
asS'reigns'
p2219
(lp2220
g15
asS'singers'
p2221
(lp2222
g34
ag23
asS'nationality'
p2223
(lp2224
g396
asS'comb'
p2225
(lp2226
g48
asS'come'
p2227
(lp2228
g26
asS'stipends'
p2229
(lp2230
g42
asS'dates'
p2231
(lp2232
g65
ag257
asS'superstar'
p2233
(lp2234
g23
asS'missions'
p2235
(lp2236
g15
asS'successes'
p2237
(lp2238
g26
asS'residence'
p2239
(lp2240
g39
asS'trader'
p2241
(lp2242
g53
ag23
asS'trades'
p2243
(lp2244
g53
asS'monk'
p2245
(lp2246
g23
asS'contract'
p2247
(lp2248
g182
asS'called'
p2249
(lp2250
g371
asS'berry'
p2251
(lp2252
g76
asS'ovservances'
p2253
(lp2254
g15
asS'awards'
p2255
(lp2256
g162
asS'railway'
p2257
(lp2258
g53
asS'traded'
p2259
(lp2260
g53
asS'duty'
p2261
(lp2262
g246
asS'cancer'
p2263
(lp2264
g237
asS'color'
p2265
(lp2266
g726
asS'Delaware'
p2267
(lp2268
g5
asS'colony'
p2269
(lp2270
g39
asS'period'
p2271
(lp2272
g65
ag15
ag441
asS'twin'
p2273
(lp2274
g23
asS'spans'
p2275
(lp2276
g257
asS'article'
p2277
(lp2278
g9
asS'poll'
p2279
(lp2280
g215
asS'considers'
p2281
(lp2282
g26
asS'boat'
p2283
(lp2284
g6
asS'turkey'
p2285
(lp2286
g448
asS'sculptresses'
p2287
(lp2288
g23
asS'cities'
p2289
(lp2290
g188
ag39
asS'mark'
p2291
(lp2292
g58
asS'dictator'
p2293
(lp2294
g23
asS'borders'
p2295
(lp2296
g396
asS'Princess'
p2297
(lp2298
g169
asS'wants'
p2299
(lp2300
g48
asS'direction'
p2301
(lp2302
g39
asS'educated'
p2303
(lp2304
g71
asS'offered'
p2305
(lp2306
g53
asS'tiger'
p2307
(lp2308
g448
asS'photos'
p2309
(lp2310
g9
asS'minister'
p2311
(lp2312
g23
ag169
asS'gunboat'
p2313
(lp2314
g6
asS'Action'
p2315
(lp2316
g15
asS'champions'
p2317
(lp2318
g34
ag23
ag122
asS'pilot'
p2319
(lp2320
g23
asS'polls'
p2321
(lp2322
g215
asS'syndromes'
p2323
(lp2324
g237
asS'associates'
p2325
(lp2326
g34
ag23
asS'policies'
p2327
(lp2328
g16
asS'newspaper'
p2329
(lp2330
g9
asS'region'
p2331
(lp2332
g39
asS'orginate'
p2333
(lp2334
g39
asS'alcoholic'
p2335
(lp2336
g76
asS'strait'
p2337
(lp2338
g39
asS'commander'
p2339
(lp2340
g23
asS'couples'
p2341
(lp2342
g34
ag23
asS'cluster'
p2343
(lp2344
g39
asS'guerrila'
p2345
(lp2346
g16
asS'eras'
p2347
(lp2348
g15
asS'protein'
p2349
(lp2350
g76
asS'fame'
p2351
(lp2352
g61
asS'tourist'
p2353
(lp2354
g39
asS'different'
p2355
(lp2356
g26
asS'revolutions'
p2357
(lp2358
g15
asS'develop'
p2359
(lp2360
g48
ag53
asS'author'
p2361
(lp2362
g9
ag23
asS'media'
p2363
(lp2364
g9
asS'kindergarten'
p2365
(lp2366
g71
asS'bowl'
p2367
(lp2368
g122
asS'heirs'
p2369
(lp2370
g34
ag23
asS'figuring'
p2371
(lp2372
g48
asS'epoch'
p2373
(lp2374
g15
asS'buys'
p2375
(lp2376
g53
ag53
asS'grain'
p2377
(lp2378
g77
asS'document'
p2379
(lp2380
g9
asS'events'
p2381
(lp2382
g15
asS'week'
p2383
(lp2384
g65
asS'centuries'
p2385
(lp2386
g65
ag257
asS'closest'
p2387
(lp2388
g39
asS'sickness'
p2389
(lp2390
g237
asS'IQ'
p2391
(lp2392
g85
asS'driver'
p2393
(lp2394
g23
asS'drives'
p2395
(lp2396
g48
asS'driven'
p2397
(lp2398
g48
asS'persons'
p2399
(lp2400
g23
asS'fowls'
p2401
(lp2402
g448
asS'fruit'
p2403
(lp2404
g76
ag77
asS'conductors'
p2405
(lp2406
g34
ag23
asS'statue'
p2407
(lp2408
g9
ag39
asS'senator'
p2409
(lp2410
g23
asS'climbing'
p2411
(lp2412
g122
asS'commemorate'
p2413
(lp2414
g15
asS'volcanoes'
p2415
(lp2416
g327
asS'charges'
p2417
(lp2418
g42
asS'expression'
p2419
(lp2420
g185
asS'submarines'
p2421
(lp2422
g6
asS'costs'
p2423
(lp2424
g42
asS'congressmen'
p2425
(lp2426
g34
ag23
asS'In'
p2427
(lp2428
g1000
ag1001
ag39
asS'genie'
p2429
(lp2430
g23
asS'model'
p2431
(lp2432
g12
ag23
asS'dimension'
p2433
(lp2434
g68
asS'bodies'
p2435
(lp2436
g39
asS'parody'
p2437
(lp2438
g9
asS'founds'
p2439
(lp2440
g48
asS'livestock'
p2441
(lp2442
g448
asS'money'
p2443
(lp2444
S'currency'
p2445
ag42
asS'racehorse'
p2446
(lp2447
g448
asS'actions'
p2448
(lp2449
g15
asS'risking'
p2450
(lp2451
g48
asS'kill'
p2452
(lp2453
g61
asS'greetings'
p2454
(lp2455
g26
asS'statues'
p2456
(lp2457
g9
ag39
asS'flavor'
p2458
(lp2459
g76
asS'speed'
p2460
(lp2461
g515
asS'blondes'
p2462
(lp2463
g23
asS'announcement'
p2464
(lp2465
g185
asS'death'
p2466
(lp2467
g61
asS'dipped'
p2468
(lp2469
g76
asS'widest'
p2470
(lp2471
g68
asS'feminist'
p2472
(lp2473
g23
asS'thinking'
p2474
(lp2475
g48
asS'instrument'
p2476
(lp2477
g1479
asS'treatment'
p2478
(lp2479
g237
ag132
asS'overthrow'
p2480
(lp2481
g15
asS'pill'
p2482
(lp2483
g237
asS'real'
p2484
(lp2485
g344
asS'around'
p2486
(lp2487
g39
asS'kills'
p2488
(lp2489
g61
asS'read'
p2490
(lp2491
g9
asS'crustaceans'
p2492
(lp2493
g448
asS'sums'
p2494
(lp2495
g42
asS'overlooks'
p2496
(lp2497
g39
asS'preference'
p2498
(lp2499
g26
asS'acronyms'
p2500
(lp2501
g182
asS'world'
p2502
(lp2503
g39
asS'railroad'
p2504
(lp2505
g53
asS'lady'
p2506
(lp2507
g23
asS'assassinate'
p2508
(lp2509
g48
asS'ruled'
p2510
(lp2511
g48
asS'martyrs'
p2512
(lp2513
g34
ag23
asS'pounds'
p2514
(lp2515
g257
asS'nutrients'
p2516
(lp2517
g76
asS'suppliers'
p2518
(lp2519
g53
asS'greeting'
p2520
(lp2521
g26
asS'serves'
p2522
(lp2523
g53
asS'benefit'
p2524
(lp2525
g26
asS'clay'
p2526
(lp2527
g228
asS'served'
p2528
(lp2529
g53
asS'reduced'
p2530
(lp2531
g182
asS'apartments'
p2532
(lp2533
g39
asS'shillings'
p2534
(lp2535
g257
asS'tragedies'
p2536
(lp2537
g15
asS'pickled'
p2538
(lp2539
g76
asS'competition'
p2540
(lp2541
g122
asS'astronomer'
p2542
(lp2543
g23
asS'cowboys'
p2544
(lp2545
g34
ag23
asS'pickles'
p2546
(lp2547
g76
asS'thinks'
p2548
(lp2549
g48
asS'composers'
p2550
(lp2551
g34
ag23
asS'viral'
p2552
(lp2553
g237
asS'dimensions'
p2554
(lp2555
g68
asS'substance'
p2556
(lp2557
g228
asS'tube'
p2558
(lp2559
g286
asS'tenses'
p2560
(lp2561
g162
asS'stops'
p2562
(lp2563
g39
asS'provides'
p2564
(lp2565
g53
asS'provider'
p2566
(lp2567
g53
asS'heroines'
p2568
(lp2569
g23
asS'director'
p2570
(lp2571
g23
ag169
asS'Chilean'
p2572
(lp2573
g5
asS'metropolis'
p2574
(lp2575
g188
asS'fables'
p2576
(lp2577
g9
asS'business'
p2578
(lp2579
g53
asS'seconds'
p2580
(lp2581
g257
asS'manufactured'
p2582
(lp2583
g53
ag12
asS'chefs'
p2584
(lp2585
g76
asS'communicate'
p2586
(lp2587
g5
asS'slaughter'
p2588
(lp2589
g15
asS'tuition'
p2590
(lp2591
g42
asS'visits'
p2592
(lp2593
g39
asS'ratios'
p2594
(lp2595
g215
asS'immigrate'
p2596
(lp2597
g396
asS'warfares'
p2598
(lp2599
g15
asS'manufactures'
p2600
(lp2601
g53
ag12
asS'manufacturer'
p2602
(lp2603
g53
asS'racoon'
p2604
(lp2605
g448
asS'on'
p2606
(lp2607
g1001
aS'On'
p2608
asS'origins'
p2609
(lp2610
g26
asS'stations'
p2611
(lp2612
g53
ag53
asS'paints'
p2613
(lp2614
g48
asS'develops'
p2615
(lp2616
g48
ag53
asS'side'
p2617
(lp2618
g16
ag162
asS'tumor'
p2619
(lp2620
g237
asS'cultivated'
p2621
(lp2622
g77
asS'airline'
p2623
(lp2624
g53
asS'ox'
p2625
(lp2626
g448
asS'other'
p2627
(lp2628
g371
asS'racehorses'
p2629
(lp2630
g448
asS'tribe'
p2631
(lp2632
g16
asS'ladies'
p2633
(lp2634
g34
ag23
asS'instruments'
p2635
(lp2636
g1479
asS'revolutionaries'
p2637
(lp2638
g23
asS'parties'
p2639
(lp2640
g16
asS'fluorine'
p2641
(lp2642
g228
asS'constipation'
p2643
(lp2644
g237
asS'her'
p2645
(lp2646
g23
asS'area'
p2647
(lp2648
g1858
ag39
asS'calamities'
p2649
(lp2650
g15
asS'distinctions'
p2651
(lp2652
g26
asS'brute'
p2653
(lp2654
g448
asS'meals'
p2655
(lp2656
g76
asS'cats'
p2657
(lp2658
g448
asS'low'
p2659
(lp2660
g68
ag85
asS'stars'
p2661
(lp2662
g48
ag39
ag34
ag23
asS'garment'
p2663
(lp2664
g12
asS'slopes'
p2665
(lp2666
g327
asS'valley'
p2667
(lp2668
g39
asS'continents'
p2669
(lp2670
g39
asS'mammals'
p2671
(lp2672
g448
asS'pitcher'
p2673
(lp2674
g23
ag122
asS'pitches'
p2675
(lp2676
g122
asS'land'
p2677
(lp2678
g396
asS'grandmothers'
p2679
(lp2680
g34
ag23
asS'hurricanes'
p2681
(lp2682
g15
asS'housewives'
p2683
(lp2684
g34
ag23
asS'imbibes'
p2685
(lp2686
g76
asS'spice'
p2687
(lp2688
g76
asS'circulation'
p2689
(lp2690
g9
asS'fabricate'
p2691
(lp2692
g53
asS'appliance'
p2693
(lp2694
g12
asS'poison'
p2695
(lp2696
g237
asS'organize'
p2697
(lp2698
g16
asS'grass'
p2699
(lp2700
g77
asS'builders'
p2701
(lp2702
g53
asS'beliefs'
p2703
(lp2704
g26
asS'illnesses'
p2705
(lp2706
g237
asS'palate'
p2707
(lp2708
g286
asS'cinema'
p2709
(lp2710
g9
asS'taste'
p2711
(lp2712
g76
asS'transporters'
p2713
(lp2714
g53
asS'moved'
p2715
(lp2716
g39
asS'deep'
p2717
(lp2718
g68
asS'an'
p2719
(lp2720
S'an'
p2721
asS'How'
p2722
(lp2723
g293
asS'as'
p2724
(lp2725
g371
asS'tasty'
p2726
(lp2727
g76
asS'at'
p2728
(lp2729
S'At'
p2730
asS'planets'
p2731
(lp2732
g39
asS'logo'
p2733
(lp2734
g53
asS'girlfriend'
p2735
(lp2736
g23
asS'oxes'
p2737
(lp2738
g448
asS'moves'
p2739
(lp2740
g39
asS'hospitals'
p2741
(lp2742
g39
asS'spends'
p2743
(lp2744
g42
asS'film'
p2745
(lp2746
g9
asS'cream'
p2747
(lp2748
g76
asS'drivers'
p2749
(lp2750
g34
ag23
asS'insurance'
p2751
(lp2752
g162
asS'field'
p2753
(lp2754
g39
ag122
asS'astronaut'
p2755
(lp2756
g23
asS'fools'
p2757
(lp2758
g34
ag23
asS'championship'
p2759
(lp2760
g122
asS'students'
p2761
(lp2762
g34
ag23
asS'Fields'
p2763
(lp2764
g39
asS'symbol'
p2765
(lp2766
g58
asS'peas'
p2767
(lp2768
g76
asS'important'
p2769
(lp2770
g15
asS'versifier'
p2771
(lp2772
g9
asS'peak'
p2773
(lp2774
g39
ag327
asS'brands'
p2775
(lp2776
g53
ag12
asS'building'
p2777
(lp2778
g39
asS'calls'
p2779
(lp2780
g371
asS'wife'
p2781
(lp2782
g23
asS'odds'
p2783
(lp2784
g215
asS'websites'
p2785
(lp2786
g39
asS'directors'
p2787
(lp2788
g34
ag23
asS'mass'
p2789
(lp2790
S'weight'
p2791
asS'god'
p2792
(lp2793
g23
asS'nutrient'
p2794
(lp2795
g76
asS'transports'
p2796
(lp2797
g53
asS'represent'
p2798
(lp2799
g149
ag58
asS'colleges'
p2800
(lp2801
g71
asS'consider'
p2802
(lp2803
g26
asS'founder'
p2804
(lp2805
g23
asS'breadth'
p2806
(lp2807
g68
asS'aids'
p2808
(lp2809
g132
asS'caused'
p2810
(lp2811
g61
ag62
asS'lack'
p2812
(lp2813
g162
asS'seals'
p2814
(lp2815
g448
asS'founded'
p2816
(lp2817
g48
asS'sunk'
p2818
(lp2819
g6
asS'disc'
p2820
(lp2821
g9
asS'talks'
p2822
(lp2823
g48
ag5
asS'expressions'
p2824
(lp2825
g185
asS'brunettes'
p2826
(lp2827
g34
ag23
asS'Fin'
p2828
(lp2829
g5
asS'sung'
p2830
(lp2831
g48
ag185
asS'causes'
p2832
(lp2833
g61
asS'apartment'
p2834
(lp2835
g39
asS'catastrophe'
p2836
(lp2837
g15
asS'gymnast'
p2838
(lp2839
g23
asS'spirit'
p2840
(lp2841
g23
asS'prophets'
p2842
(lp2843
g34
ag23
asS'tail'
p2844
(lp2845
g448
asS'program'
p2846
(lp2847
g9
ag15
asS'award'
p2848
(lp2849
g162
asS'homepage'
p2850
(lp2851
g39
asS'woman'
p2852
(lp2853
g23
asS'appointment'
p2854
(lp2855
g48
asS'song'
p2856
(lp2857
g9
asS'far'
p2858
(lp2859
g68
asS'swallows'
p2860
(lp2861
g76
asS'induce'
p2862
(lp2863
g61
asS'puzzles'
p2864
(lp2865
g162
asS'sons'
p2866
(lp2867
g34
ag23
asS'worst'
p2868
(lp2869
g15
asS'nuns'
p2870
(lp2871
g34
ag23
asS'decide'
p2872
(lp2873
g48
asS'fall'
p2874
(lp2875
g39
asS'difference'
p2876
(lp2877
g26
asS'condition'
p2878
(lp2879
g26
asS'leads'
p2880
(lp2881
g48
asS'neurological'
p2882
(lp2883
g237
asS'heaven'
p2884
(lp2885
g39
asS'anesthetics'
p2886
(lp2887
g237
asS'mothers'
p2888
(lp2889
g34
ag23
asS'celebrity'
p2890
(lp2891
g23
asS'scroundrels'
p2892
(lp2893
g23
asS'brewery'
p2894
(lp2895
g39
asS'large'
p2896
(lp2897
S'big'
p2898
ag1858
ag125
asS'sang'
p2899
(lp2900
g48
ag185
asS'millimeters'
p2901
(lp2902
g257
asS'mammal'
p2903
(lp2904
g448
asS'sank'
p2905
(lp2906
g6
asS'flick'
p2907
(lp2908
g9
asS'cockatoo'
p2909
(lp2910
g448
asS'abbreviated'
p2911
(lp2912
g182
asS'titled'
p2913
(lp2914
g371
asS'abridge'
p2915
(lp2916
g182
asS'streets'
p2917
(lp2918
g39
asS'gulfs'
p2919
(lp2920
g39
asS'rate'
p2921
(lp2922
g42
ag85
ag215
asS'titles'
p2923
(lp2924
g9
ag246
ag371
asS'design'
p2925
(lp2926
g48
ag26
asS'abbreviates'
p2927
(lp2928
g182
asS'lawyer'
p2929
(lp2930
g23
asS'healer'
p2931
(lp2932
g23
asS'creatures'
p2933
(lp2934
g448
asS'what'
p2935
(lp2936
g2033
asS'Latin'
p2937
(lp2938
g5
asS'sun'
p2939
(lp2940
g39
asS'sum'
p2941
(lp2942
g42
asS'thickness'
p2943
(lp2944
g68
asS'witnesses'
p2945
(lp2946
g23
asS'cinemas'
p2947
(lp2948
g9
asS'learned'
p2949
(lp2950
g26
asS'guns'
p2951
(lp2952
g12
asS'toes'
p2953
(lp2954
g286
asS'Cup'
p2955
(lp2956
g122
asS'detectives'
p2957
(lp2958
g34
ag23
asS'portrays'
p2959
(lp2960
g48
asS'hours'
p2961
(lp2962
g65
ag257
asS'ranger'
p2963
(lp2964
g23
asS'economists'
p2965
(lp2966
g23
asS'directions'
p2967
(lp2968
g39
asS'tragedy'
p2969
(lp2970
g15
asS'bible'
p2971
(lp2972
g9
asS'prosecutors'
p2973
(lp2974
g34
ag23
asS'experience'
p2975
(lp2976
g26
ag15
asS'popes'
p2977
(lp2978
g34
ag23
asS'soldier'
p2979
(lp2980
g23
asS'airport'
p2981
(lp2982
g188
ag39
asS'published'
p2983
(lp2984
g9
asS'action'
p2985
(lp2986
g15
asS'cup'
p2987
(lp2988
g122
asS'family'
p2989
(lp2990
g23
asS'cosmetic'
p2991
(lp2992
g12
asS'appliances'
p2993
(lp2994
g12
asS'toys'
p2995
(lp2996
g12
asS'actress'
p2997
(lp2998
g23
asS'extinction'
p2999
(lp3000
g61
asS'plurals'
p3001
(lp3002
g80
asS'languages'
p3003
(lp3004
g5
asS'eye'
p3005
(lp3006
g286
asS'warship'
p3007
(lp3008
g6
asS'probabilities'
p3009
(lp3010
g215
asS'revelation'
p3011
(lp3012
g185
asS'bicycles'
p3013
(lp3014
g6
asS'call'
p3015
(lp3016
g371
asS'Russian'
p3017
(lp3018
g5
asS'chicken'
p3019
(lp3020
g448
asS'markets'
p3021
(lp3022
g53
ag53
asS'entails'
p3023
(lp3024
g149
asS'horses'
p3025
(lp3026
g448
asS'revolutionary'
p3027
(lp3028
g23
asS'fellow'
p3029
(lp3030
g23
asS'knows'
p3031
(lp3032
g48
asS'abridged'
p3033
(lp3034
g182
asS'substances'
p3035
(lp3036
g228
asS'company'
p3037
(lp3038
g53
asS'constructs'
p3039
(lp3040
g53
asS'abridges'
p3041
(lp3042
g182
asS'American'
p3043
(lp3044
g5
asS'known'
p3045
(lp3046
g61
ag371
asS'town'
p3047
(lp3048
g188
ag39
asS'hour'
p3049
(lp3050
g65
asS'primate'
p3051
(lp3052
g448
asS'thickest'
p3053
(lp3054
g68
asS'mall'
p3055
(lp3056
g39
asS'learn'
p3057
(lp3058
g26
asS'male'
p3059
(lp3060
g448
ag23
asS'history'
p3061
(lp3062
g26
ag15
ag15
asS'beaches'
p3063
(lp3064
g39
asS'inventor'
p3065
(lp3066
g23
asS'seaports'
p3067
(lp3068
g188
asS'prompt'
p3069
(lp3070
g61
asS'impacts'
p3071
(lp3072
g26
ag62
asS'salesmen'
p3073
(lp3074
g23
asS'epics'
p3075
(lp3076
g9
asS'geniouse'
p3077
(lp3078
g23
asS'states'
p3079
(lp3080
g39
ag2110
asS'way'
p3081
(lp3082
g132
asS'salty'
p3083
(lp3084
g76
asS'best-seller'
p3085
(lp3086
g9
asS'sense'
p3087
(lp3088
g162
asS'cows'
p3089
(lp3090
g448
asS'phrase'
p3091
(lp3092
g185
ag80
asS'cultivate'
p3093
(lp3094
g77
asS'lacks'
p3095
(lp3096
g162
asS'species'
p3097
(lp3098
g448
asS'information'
p3099
(lp3100
g26
asS'court'
p3101
(lp3102
g16
ag39
ag122
asS'goal'
p3103
(lp3104
g122
asS'heroine'
p3105
(lp3106
g23
asS'ledges'
p3107
(lp3108
g327
asS'influences'
p3109
(lp3110
g26
ag62
asS'centimeters'
p3111
(lp3112
g257
ag257
asS'creature'
p3113
(lp3114
g448
asS'plant'
p3115
(lp3116
g77
asS'weaknesses'
p3117
(lp3118
g26
asS'headquartered'
p3119
(lp3120
g39
asS'treatments'
p3121
(lp3122
g237
ag132
asS'fungus'
p3123
(lp3124
g237
asS'plane'
p3125
(lp3126
g6
asS'cars'
p3127
(lp3128
g12
asS'blood'
p3129
(lp3130
g286
asS'softball'
p3131
(lp3132
g122
asS'Swiss'
p3133
(lp3134
g5
asS'response'
p3135
(lp3136
g48
asS'a'
(lp3137
g2721
asS'cults'
p3138
(lp3139
g723
asS'doctor'
p3140
(lp3141
g23
asS'children'
p3142
(lp3143
g34
ag23
asS'bugs'
p3144
(lp3145
g448
asS'scroundels'
p3146
(lp3147
g34
asS'alphabet'
p3148
(lp3149
g664
asS'egg'
p3150
(lp3151
g448
ag286
asS'playing'
p3152
(lp3153
g48
asS'replied'
p3154
(lp3155
g48
asS'What'
p3156
(lp3157
g2033
asS'developed'
p3158
(lp3159
g48
ag53
asS'mission'
p3160
(lp3161
g15
asS'trade'
p3162
(lp3163
g53
asS'held'
p3164
(lp3165
g15
asS'paper'
p3166
(lp3167
g9
ag12
asS'replies'
p3168
(lp3169
g48
asS'creaters'
p3170
(lp3171
g53
asS'suffer'
p3172
(lp3173
g237
asS'avenue'
p3174
(lp3175
g39
asS'roots'
p3176
(lp3177
g77
asS'developer'
p3178
(lp3179
g53
asS'champs'
p3180
(lp3181
g34
ag23
asS'pests'
p3182
(lp3183
g448
asS'sodium'
p3184
(lp3185
g228
asS'environmentalist'
p3186
(lp3187
g23
asS'fined'
p3188
(lp3189
g42
asS'translation'
p3190
(lp3191
g371
asS'conjugation'
p3192
(lp3193
g371
asS'symptoms'
p3194
(lp3195
g237
asS'lyricists'
p3196
(lp3197
g23
asS'founders'
p3198
(lp3199
g34
ag23
asS'peanuts'
p3200
(lp3201
g76
asS'soccer'
p3202
(lp3203
g122
asS'sauce'
p3204
(lp3205
g76
asS'wingspan'
p3206
(lp3207
g68
asS'fines'
p3208
(lp3209
g42
asS'fool'
p3210
(lp3211
g23
asS'good'
p3212
(lp3213
g26
asS'racoons'
p3214
(lp3215
g448
asS'orcas'
p3216
(lp3217
g448
asS'food'
p3218
(lp3219
g76
asS'subtitled'
p3220
(lp3221
g9
asS'males'
p3222
(lp3223
g23
asS'hunter'
p3224
(lp3225
g23
asS'predator'
p3226
(lp3227
g448
asS'shuttle'
p3228
(lp3229
g6
asS'walls'
p3230
(lp3231
g39
asS'grandfathers'
p3232
(lp3233
g34
ag23
asS'rank'
p3234
(lp3235
g1207
asS'compound'
p3236
(lp3237
g228
asS'subtitles'
p3238
(lp3239
g9
asS'mystery'
p3240
(lp3241
g26
asS'nephews'
p3242
(lp3243
g23
asS'Maranungku'
p3244
(lp3245
g5
asS'spy'
p3246
(lp3247
g23
asS'courses'
p3248
(lp3249
g122
asS'habits'
p3250
(lp3251
g162
asS'predators'
p3252
(lp3253
g448
asS'gender'
p3254
(lp3255
g162
asS'found'
p3256
(lp3257
g48
ag39
asS'ports'
p3258
(lp3259
g188
asS'referred'
p3260
(lp3261
g371
asS'weighs'
p3262
(lp3263
g2791
asS'brunette'
p3264
(lp3265
g23
asS'another'
p3266
(lp3267
g371
asS'weight'
p3268
(lp3269
g2791
asS'generation'
p3270
(lp3271
g162
asS'fish'
p3272
(lp3273
g448
ag76
asS'reduce'
p3274
(lp3275
g182
asS'monks'
p3276
(lp3277
g34
ag23
asS'used'
p3278
(lp3279
g5
ag132
asS'brother'
p3280
(lp3281
g23
asS'expect'
p3282
(lp3283
g48
asS'advertisers'
p3284
(lp3285
g53
asS'operation'
p3286
(lp3287
g15
asS'event'
p3288
(lp3289
g15
asS'lovers'
p3290
(lp3291
g34
ag23
asS'item'
p3292
(lp3293
g162
asS'induces'
p3294
(lp3295
g61
asS'Lakes'
p3296
(lp3297
g39
asS'publish'
p3298
(lp3299
g9
asS'seaport'
p3300
(lp3301
g188
asS'health'
p3302
(lp3303
g237
asS'hill'
p3304
(lp3305
g327
asS'induced'
p3306
(lp3307
g61
asS'occurs'
p3308
(lp3309
g15
asS'bald'
p3310
(lp3311
g48
asS'belief'
p3312
(lp3313
g26
asS'combed'
p3314
(lp3315
g48
asS'horse'
p3316
(lp3317
g448
asS'Rockefeller'
p3318
(lp3319
g23
asS'reason'
p3320
(lp3321
g61
asS'cookie'
p3322
(lp3323
g76
asS'members'
p3324
(lp3325
g34
ag23
asS'ask'
p3326
(lp3327
g48
asS'teach'
p3328
(lp3329
g48
asS'sown'
p3330
(lp3331
g77
asS'Yankees'
p3332
(lp3333
g34
ag23
asS'bushes'
p3334
(lp3335
g77
asS'definition'
p3336
(lp3337
g149
asS'owners'
p3338
(lp3339
g23
asS'benefits'
p3340
(lp3341
g26
asS'symbolized'
p3342
(lp3343
g58
asS'Flemish'
p3344
(lp3345
g5
asS'prophet'
p3346
(lp3347
g23
asS'computers'
p3348
(lp3349
g12
asS'consequence'
p3350
(lp3351
g62
asS'pilots'
p3352
(lp3353
g34
ag23
asS'feed'
p3354
(lp3355
g76
asS'copper'
p3356
(lp3357
g228
asS'dine'
p3358
(lp3359
g76
asS'vowel'
p3360
(lp3361
g664
asS'probability'
p3362
(lp3363
g215
asS'number'
p3364
(lp3365
g45
ag85
asS'feet'
p3366
(lp3367
g257
asS'revolution'
p3368
(lp3369
g15
asS'done'
p3370
(lp3371
g26
asS'fees'
p3372
(lp3373
g42
asS'feeded'
p3374
(lp3375
g76
asS'wages'
p3376
(lp3377
g42
asS'fiction'
p3378
(lp3379
g9
asS'soaps'
p3380
(lp3381
g12
asS'rents'
p3382
(lp3383
g42
asS'razor'
p3384
(lp3385
g12
asS'story'
p3386
(lp3387
g9
ag26
asS'heads'
p3388
(lp3389
g34
ag23
asS'guest'
p3390
(lp3391
g23
asS'B.A.'
p3392
(lp3393
g169
asS'construct'
p3394
(lp3395
g53
asS'paint'
p3396
(lp3397
g48
asS'station'
p3398
(lp3399
g53
ag53
asS'identity'
p3400
(lp3401
g23
asS'statement'
p3402
(lp3403
g26
asS'store'
p3404
(lp3405
g53
asS'Desert'
p3406
(lp3407
g39
asS'relationship'
p3408
(lp3409
g26
asS'inaugurates'
p3410
(lp3411
g48
asS'park'
p3412
(lp3413
g39
asS'part'
p3414
(lp3415
g286
ag39
ag23
asS'authors'
p3416
(lp3417
g9
ag34
ag23
asS'alphabets'
p3418
(lp3419
g664
asS'albums'
p3420
(lp3421
g9
asS'believe'
p3422
(lp3423
g26
asS'inaugurated'
p3424
(lp3425
g48
asS'king'
p3426
(lp3427
g23
ag169
asS'performers'
p3428
(lp3429
g23
asS'plateaus'
p3430
(lp3431
g327
asS'aims'
p3432
(lp3433
g61
asS'ISPs'
p3434
(lp3435
g53
asS'bride'
p3436
(lp3437
g23
asS'architect'
p3438
(lp3439
g23
asS'risks'
p3440
(lp3441
g48
asS'sister'
p3442
(lp3443
g23
asS'declare'
p3444
(lp3445
g48
ag185
asS'kilometers'
p3446
(lp3447
g257
asS'moving_picture'
p3448
(lp3449
g9
asS'tongues'
p3450
(lp3451
g5
asS'ages'
p3452
(lp3453
g15
asS'emperors'
p3454
(lp3455
g34
ag23
asS'juice'
p3456
(lp3457
g76
asS'proprotions'
p3458
(lp3459
g215
asS'pranksters'
p3460
(lp3461
g34
ag23
asS'organs'
p3462
(lp3463
g286
asS'sell'
p3464
(lp3465
g53
ag42
asS'sicknesses'
p3466
(lp3467
g237
asS'built'
p3468
(lp3469
g48
ag53
ag39
asS'officers'
p3470
(lp3471
g34
ag23
asS'bacteria'
p3472
(lp3473
g237
asS'also'
p3474
(lp3475
g371
asS'build'
p3476
(lp3477
g48
ag53
ag39
asS'populous'
p3478
(lp3479
g188
ag396
ag39
asS'province'
p3480
(lp3481
g2110
asS'play'
p3482
(lp3483
g48
ag9
ag1479
ag122
asS'experienced'
p3484
(lp3485
g26
ag15
asS'eggs'
p3486
(lp3487
g448
ag286
asS'measures'
p3488
(lp3489
g132
asS'architects'
p3490
(lp3491
g34
ag23
asS'cigarette'
p3492
(lp3493
g12
asS'virus'
p3494
(lp3495
g237
asS'experiences'
p3496
(lp3497
g26
ag15
asS'significant'
p3498
(lp3499
g15
asS'seasons'
p3500
(lp3501
g257
asS'engagements'
p3502
(lp3503
g15
asS'constitution'
p3504
(lp3505
g9
asS'folklores'
p3506
(lp3507
g9
asS'dealers'
p3508
(lp3509
g53
asS'performances'
p3510
(lp3511
g15
asS'researchers'
p3512
(lp3513
g23
asS'playwritht'
p3514
(lp3515
g23
asS'weigh'
p3516
(lp3517
g2791
asS'tubes'
p3518
(lp3519
g286
asS'institutions'
p3520
(lp3521
g71
asS'celebrated'
p3522
(lp3523
g15
asS'golf'
p3524
(lp3525
g122
asS'phenomenon'
p3526
(lp3527
g15
asS'verbs'
p3528
(lp3529
g80
asS'pennies'
p3530
(lp3531
g257
asS'doctors'
p3532
(lp3533
g34
ag23
asS'celebrities'
p3534
(lp3535
g34
ag23
asS'secretaries'
p3536
(lp3537
g34
ag23
asS'hotel'
p3538
(lp3539
g39
asS'businesses'
p3540
(lp3541
g53
asS'fine'
p3542
(lp3543
g42
asS'find'
p3544
(lp3545
g39
asS'occupation'
p3546
(lp3547
g246
asS'impact'
p3548
(lp3549
g26
ag62
asS'deserts'
p3550
(lp3551
g39
asS'writes'
p3552
(lp3553
g48
ag9
asS'writer'
p3554
(lp3555
g23
asS'French'
p3556
(lp3557
g5
asS'flights'
p3558
(lp3559
g6
asS'rubles'
p3560
(lp3561
g257
asS'factor'
p3562
(lp3563
g61
asS'distributes'
p3564
(lp3565
g53
asS'Spice'
p3566
(lp3567
g76
asS'publishs'
p3568
(lp3569
g9
asS'dancers'
p3570
(lp3571
g34
ag23
asS'hit'
p3572
(lp3573
g9
asS'revolts'
p3574
(lp3575
g15
asS'referees'
p3576
(lp3577
g34
ag23
asS'trees'
p3578
(lp3579
g77
asS'famous'
p3580
(lp3581
g61
ag15
asS'longest'
p3582
(lp3583
g68
ag39
asS'Serbian'
p3584
(lp3585
g5
asS'inaugurate'
p3586
(lp3587
g48
asS'Line'
p3588
(lp3589
g53
asS'enemy'
p3590
(lp3591
g23
asS'catcher'
p3592
(lp3593
g23
asS'motorcycles'
p3594
(lp3595
g12
ag6
asS'contagious'
p3596
(lp3597
g237
ag237
asS'nicknamed'
p3598
(lp3599
g371
asS'tumors'
p3600
(lp3601
g237
asS'millenium'
p3602
(lp3603
g65
asS'common'
p3604
(lp3605
g26
ag371
asS'river'
p3606
(lp3607
g39
asS'wrote'
p3608
(lp3609
g48
ag9
asS'orca'
p3610
(lp3611
g448
asS'bars'
p3612
(lp3613
g53
asS'set'
p3614
(lp3615
g122
asS'creator'
p3616
(lp3617
g53
ag23
asS'locale'
p3618
(lp3619
g39
asS'sex'
p3620
(lp3621
g162
asS'culture'
p3622
(lp3623
g1122
ag16
asS'are'
p3624
(lp3625
g985
ag986
asS'sea'
p3626
(lp3627
g39
asS'sips'
p3628
(lp3629
g76
asS'close'
p3630
(lp3631
g39
asS'institutes'
p3632
(lp3633
g71
ag71
asS'constellation'
p3634
(lp3635
g39
asS'learns'
p3636
(lp3637
g26
asS'spirits'
p3638
(lp3639
g23
asS'pictures'
p3640
(lp3641
g9
asS'exchange'
p3642
(lp3643
g42
asS'performer'
p3644
(lp3645
g23
asS'comediennes'
p3646
(lp3647
g34
ag23
asS'libraries'
p3648
(lp3649
g39
asS'fans'
p3650
(lp3651
g23
asS'won'
p3652
(lp3653
g122
asS'managers'
p3654
(lp3655
g23
asS'rite'
p3656
(lp3657
g15
asS'champagne'
p3658
(lp3659
g76
asS'conditions'
p3660
(lp3661
g26
asS'Professor'
p3662
(lp3663
g169
asS'King'
p3664
(lp3665
g169
asS'sold'
p3666
(lp3667
g53
ag42
asS'incident'
p3668
(lp3669
g15
asS'ranked'
p3670
(lp3671
g1207
asS'conservationist'
p3672
(lp3673
g23
asS'knights'
p3674
(lp3675
g34
ag23
asS'league'
p3676
(lp3677
g16
asS'last'
p3678
(lp3679
S'last'
p3680
ag344
ag441
asS'fine_art'
p3681
(lp3682
g9
asS'restaurant'
p3683
(lp3684
g53
ag39
asS'liters'
p3685
(lp3686
g257
asS'crafts'
p3687
(lp3688
g6
asS'operas'
p3689
(lp3690
g9
asS'improves'
p3691
(lp3692
g132
asS'characterstic'
p3693
(lp3694
g26
asS'boxers'
p3695
(lp3696
g34
ag23
asS'finds'
p3697
(lp3698
g39
asS'sink'
p3699
(lp3700
g6
asS'navigators'
p3701
(lp3702
g34
ag23
asS'flies'
p3703
(lp3704
g448
asS'volcanic'
p3705
(lp3706
g327
asS'danced'
p3707
(lp3708
g48
asS'supply'
p3709
(lp3710
g53
asS'reasons'
p3711
(lp3712
g61
asS'sweet'
p3713
(lp3714
g76
asS'address'
p3715
(lp3716
g39
asS'usages'
p3717
(lp3718
g26
asS'dances'
p3719
(lp3720
g48
asS'dancer'
p3721
(lp3722
g23
asS'village'
p3723
(lp3724
g188
asS'vessel'
p3725
(lp3726
g286
ag6
asS'War'
p3727
(lp3728
g15
asS'beats'
p3729
(lp3730
g122
asS'jockeys'
p3731
(lp3732
g34
ag23
asS'equivalent'
p3733
(lp3734
g42
ag371
asS'apostle'
p3735
(lp3736
g23
asS'create'
p3737
(lp3738
g48
ag53
asS'trilogy'
p3739
(lp3740
g9
asS'assassinates'
p3741
(lp3742
g48
asS'whom'
p3743
(lp3744
g29
asS'collected'
p3745
(lp3746
g162
asS'assassinated'
p3747
(lp3748
g48
asS'meeting'
p3749
(lp3750
g15
asS'attire'
p3751
(lp3752
g12
asS'firm'
p3753
(lp3754
g53
asS'lived'
p3755
(lp3756
g39
asS'flight'
p3757
(lp3758
g6
asS'champion'
p3759
(lp3760
g23
ag122
asS'gas'
p3761
(lp3762
g228
asS'fund'
p3763
(lp3764
g42
asS'races'
p3765
(lp3766
g16
ag122
asS'lives'
p3767
(lp3768
g39
asS'revolvers'
p3769
(lp3770
g12
asS'folklore'
p3771
(lp3772
g9
asS'prices'
p3773
(lp3774
g42
asS'towns'
p3775
(lp3776
g188
ag39
asS'plants'
p3777
(lp3778
g77
asS'stolen'
p3779
(lp3780
g42
asS'look'
p3781
(lp3782
g48
ag26
asS'grains'
p3783
(lp3784
g77
asS'solid'
p3785
(lp3786
g228
asS'bill'
p3787
(lp3788
g42
asS'governor'
p3789
(lp3790
g23
asS'formats'
p3791
(lp3792
g162
asS'Miss'
p3793
(lp3794
g169
asS'engineers'
p3795
(lp3796
g34
ag23
asS'City'
p3797
(lp3798
g188
asS'century'
p3799
(lp3800
g65
asS'calculator'
p3801
(lp3802
g12
asS'rulers'
p3803
(lp3804
g23
asS'reads'
p3805
(lp3806
g9
asS'Dwarfs'
p3807
(lp3808
g23
asS'ethnicity'
p3809
(lp3810
g16
asS'kwai'
p3811
(lp3812
g257
asS'stimulates'
p3813
(lp3814
g61
asS'lengths'
p3815
(lp3816
g68
asS'dimes'
p3817
(lp3818
g257
asS'shorten'
p3819
(lp3820
g182
asS'rules'
p3821
(lp3822
g48
ag26
asS'stimulated'
p3823
(lp3824
g61
asS'widely'
p3825
(lp3826
g5
asS'Island'
p3827
(lp3828
g39
asS'composition'
p3829
(lp3830
g9
ag228
asS'daughters'
p3831
(lp3832
g34
ag23
asS'strips'
p3833
(lp3834
g9
asS'lawyers'
p3835
(lp3836
g34
ag23
asS'Cow'
p3837
(lp3838
g448
asS'mountain'
p3839
(lp3840
g39
ag327
asS'youngsters'
p3841
(lp3842
g34
ag23
asS'holidays'
p3843
(lp3844
g15
asS'husbands'
p3845
(lp3846
g34
ag23
asS'liquids'
p3847
(lp3848
g228
asS'purpose'
p3849
(lp3850
g61
asS'nouns'
p3851
(lp3852
g80
asS'yuan'
p3853
(lp3854
g257
asS'nickname'
p3855
(lp3856
g344
ag371
asS'residents'
p3857
(lp3858
g34
ag23
asS'task'
p3859
(lp3860
g246
asS'percentages'
p3861
(lp3862
g215
asS'spent'
p3863
(lp3864
g42
asS'person'
p3865
(lp3866
g23
asS'solids'
p3867
(lp3868
g228
asS'temperature'
p3869
(lp3870
g296
asS'Quechua'
p3871
(lp3872
g5
asS'landmark'
p3873
(lp3874
g39
asS'Wonder'
p3875
(lp3876
g26
asS'spend'
p3877
(lp3878
g42
asS'plagues'
p3879
(lp3880
g237
asS'abilities'
p3881
(lp3882
g162
asS'golfer'
p3883
(lp3884
g23
asS'ruler'
p3885
(lp3886
g23
asS'desk'
p3887
(lp3888
g12
asS'quarters'
p3889
(lp3890
g257
asS'abbreviation'
p3891
(lp3892
g182
asS'foreshorten'
p3893
(lp3894
g182
asS'plagued'
p3895
(lp3896
g237
asS'retired'
p3897
(lp3898
g48
asS'continent'
p3899
(lp3900
g39
asS'addresses'
p3901
(lp3902
g39
asS'wage'
p3903
(lp3904
g42
asS'readers'
p3905
(lp3906
g9
asS'navigator'
p3907
(lp3908
g23
asS'Doctor'
p3909
(lp3910
g169
asS'education'
p3911
(lp3912
g162
ag71
asS'pillars'
p3913
(lp3914
g23
asS'rangers'
p3915
(lp3916
g34
ag23
asS'location'
p3917
(lp3918
g39
asS'win'
p3919
(lp3920
g122
asS'chairman'
p3921
(lp3922
g23
asS'On'
p3923
(lp3924
g1001
ag39
ag2608
asS'overthrows'
p3925
(lp3926
g15
asS'constitutions'
p3927
(lp3928
g9
asS'format'
p3929
(lp3930
g162
asS'big'
p3931
(lp3932
g2898
ag1858
ag125
asS'bid'
p3933
(lp3934
g162
asS'wives'
p3935
(lp3936
g34
ag23
asS'suffering'
p3937
(lp3938
g237
asS'cataclysm'
p3939
(lp3940
g15
asS'projects'
p3941
(lp3942
g15
asS'success'
p3943
(lp3944
g26
asS'pillar'
p3945
(lp3946
g23
asS'capitals'
p3947
(lp3948
g188
asS'translates'
p3949
(lp3950
g371
asS'collect'
p3951
(lp3952
g162
asS'indication'
p3953
(lp3954
g149
asS'popular'
p3955
(lp3956
g9
asS'tribes'
p3957
(lp3958
g16
asS'walrus'
p3959
(lp3960
g448
asS'reduces'
p3961
(lp3962
g182
asS'names'
p3963
(lp3964
g371
asS'valleys'
p3965
(lp3966
g39
asS'methods'
p3967
(lp3968
g132
asS'fathers'
p3969
(lp3970
g34
ag23
asS'Brazilian'
p3971
(lp3972
g5
asS'Fahrenheit'
p3973
(lp3974
g296
asS'traits'
p3975
(lp3976
g26
asS'non-contagious'
p3977
(lp3978
g237
asS'clown'
p3979
(lp3980
g23
asS'erupts'
p3981
(lp3982
g39
asS'candle'
p3983
(lp3984
g12
asS'shipwrecks'
p3985
(lp3986
g6
asS'scale'
p3987
(lp3988
g85
ag162
asS'jewelry'
p3989
(lp3990
g162
ag12
asS'affects'
p3991
(lp3992
g61
ag62
asS'seller'
p3993
(lp3994
g53
asS'competitions'
p3995
(lp3996
g122
asS'religion'
p3997
(lp3998
g723
asS'pen'
p3999
(lp4000
g48
asS'civilization'
p4001
(lp4002
g16
asS'epic'
p4003
(lp4004
g9
asS'pea'
p4005
(lp4006
g76
asS'journalist'
p4007
(lp4008
g23
asS'be'
p4009
(lp4010
g985
ag26
asS'rum'
p4011
(lp4012
g76
asS'lakes'
p4013
(lp4014
g39
asS'Governor'
p4015
(lp4016
g23
asS'lasts'
p4017
(lp4018
g3680
asS'pitchers'
p4019
(lp4020
g34
ag23
asS'vaccine'
p4021
(lp4022
g237
asS'entailed'
p4023
(lp4024
g149
asS'range'
p4025
(lp4026
g39
ag327
asS'congressman'
p4027
(lp4028
g23
asS'classics'
p4029
(lp4030
g9
asS'block'
p4031
(lp4032
g39
asS'pollution'
p4033
(lp4034
g162
asS'seeing'
p4035
(lp4036
g39
asS'shavers'
p4037
(lp4038
g12
asS'terrorists'
p4039
(lp4040
g16
ag34
ag23
asS'visit'
p4041
(lp4042
g39
asS'comedienne'
p4043
(lp4044
g23
asS'ensue'
p4045
(lp4046
g62
asS'currency'
p4047
(lp4048
g2445
ag42
asS'symbolizes'
p4049
(lp4050
g58
asS'steamboats'
p4051
(lp4052
g6
asS'impressed'
p4053
(lp4054
g62
asS'statistics'
p4055
(lp4056
g85
asS'span'
p4057
(lp4058
g68
ag441
asS'tasting'
p4059
(lp4060
g76
asS'surnames'
p4061
(lp4062
g344
asS'fast'
p4063
(lp4064
g1484
ag515
asS'occupy'
p4065
(lp4066
g246
asS'impresses'
p4067
(lp4068
g62
asS'suit'
p4069
(lp4070
g12
asS'translate'
p4071
(lp4072
g371
asS'manufacture'
p4073
(lp4074
g53
ag12
asS'mountains'
p4075
(lp4076
g39
ag327
asS'newsman'
p4077
(lp4078
g23
asS'inches'
p4079
(lp4080
g257
asS'dips'
p4081
(lp4082
g76
asS'girlfriends'
p4083
(lp4084
g34
ag23
asS'boys'
p4085
(lp4086
g34
ag23
asS'injection'
p4087
(lp4088
g237
asS'kitchenware'
p4089
(lp4090
g162
asS'ceremonies'
p4091
(lp4092
g15
asS'mineral'
p4093
(lp4094
g228
asS'directed'
p4095
(lp4096
g48
asS'Irish'
p4097
(lp4098
g5
asS'nieces'
p4099
(lp4100
g23
asS'fries'
p4101
(lp4102
g76
asS'par'
p4103
(lp4104
g85
asS'planet'
p4105
(lp4106
g39
asS'planes'
p4107
(lp4108
g6
asS'gymnastics'
p4109
(lp4110
g122
asS'medical'
p4111
(lp4112
g237
asS'yelled'
p4113
(lp4114
g185
asS'geese'
p4115
(lp4116
g448
asS'expedition'
p4117
(lp4118
g122
asS'defined'
p4119
(lp4120
g149
ag371
asS'Dr.'
p4121
(lp4122
g169
asS'influence'
p4123
(lp4124
g26
ag62
asS'metals'
p4125
(lp4126
g228
asS'single'
p4127
(lp4128
g48
asS'cure'
p4129
(lp4130
g237
asS'Mister'
p4131
(lp4132
g169
asS'defines'
p4133
(lp4134
g149
asS'codes'
p4135
(lp4136
g45
asS'peace'
p4137
(lp4138
g15
asS'application'
p4139
(lp4140
g26
asS'preachers'
p4141
(lp4142
g34
ag23
asS'actors'
p4143
(lp4144
g34
ag23
asS'income'
p4145
(lp4146
g42
asS'department'
p4147
(lp4148
g16
ag71
asS'mayonnaise'
p4149
(lp4150
g76
asS'sorcerer'
p4151
(lp4152
g23
asS'elements'
p4153
(lp4154
g228
asS'provided'
p4155
(lp4156
g53
asS'heir'
p4157
(lp4158
g23
asS'enterprise'
p4159
(lp4160
g53
asS'liners'
p4161
(lp4162
g6
asS'resign'
p4163
(lp4164
g48
asS'meaning'
p4165
(lp4166
g149
asS'fishes'
p4167
(lp4168
g448
asS'leaf'
p4169
(lp4170
g77
asS'sides'
p4171
(lp4172
g16
ag162
asS'freeways'
p4173
(lp4174
g39
asS'suffers'
p4175
(lp4176
g237
asS'healers'
p4177
(lp4178
g34
ag23
asS'age'
p4179
(lp4180
g15
ag441
asS'vehicles'
p4181
(lp4182
g12
ag6
asS'departments'
p4183
(lp4184
g16
ag71
asS'feud'
p4185
(lp4186
g15
asS'cooked'
p4187
(lp4188
g76
asS'depth'
p4189
(lp4190
g68
asS'gunboats'
p4191
(lp4192
g6
asS'At'
p4193
(lp4194
g2730
asS'berries'
p4195
(lp4196
g76
asS'proximate'
p4197
(lp4198
g39
asS'code'
p4199
(lp4200
g45
asS'secretary'
p4201
(lp4202
g23
asS'results'
p4203
(lp4204
g62
asS'astronauts'
p4205
(lp4206
g34
ag23
asS'super-teams'
p4207
(lp4208
g16
asS'contributions'
p4209
(lp4210
g26
asS'birthplace'
p4211
(lp4212
g39
asS'compose'
p4213
(lp4214
g48
asS'best-sellers'
p4215
(lp4216
g9
asS'peanut'
p4217
(lp4218
g76
asS'commanders'
p4219
(lp4220
g34
ag23
asS'suits'
p4221
(lp4222
g12
asS'literary'
p4223
(lp4224
g9
asS'senators'
p4225
(lp4226
g34
ag23
asS'women'
p4227
(lp4228
g34
ag23
asS'tequila'
p4229
(lp4230
g76
asS'resources'
p4231
(lp4232
g162
asS'ingredient'
p4233
(lp4234
g228
asS'pay'
p4235
(lp4236
g42
asS'queen'
p4237
(lp4238
g23
ag169
asS'bibles'
p4239
(lp4240
g9
asS'Mrs.'
p4241
(lp4242
g169
asS'acreage'
p4243
(lp4244
g1858
asS'accuse'
p4245
(lp4246
g48
asS'slogan'
p4247
(lp4248
g185
asS'minerals'
p4249
(lp4250
g228
asS'weapon'
p4251
(lp4252
g162
ag12
asS'harbor'
p4253
(lp4254
g39
asS'positions'
p4255
(lp4256
g246
asS'marry'
p4257
(lp4258
g48
asS'attempts'
p4259
(lp4260
g48
ag15
asS'deals'
p4261
(lp4262
g53
ag26
asS'race'
p4263
(lp4264
g16
ag122
asS'verdict'
p4265
(lp4266
g26
asS'catastrophes'
p4267
(lp4268
g15
asS'dealt'
p4269
(lp4270
g26
asS'refer'
p4271
(lp4272
g371
asS'equipments'
p4273
(lp4274
g162
ag12
asS'crop'
p4275
(lp4276
g76
ag77
asS'rivers'
p4277
(lp4278
g39
asS'video'
p4279
(lp4280
g9
asS'believes'
p4281
(lp4282
g26
asS'makers'
p4283
(lp4284
g53
asS'universities'
p4285
(lp4286
g71
asS'plays'
p4287
(lp4288
g48
ag9
ag1479
ag122
asS'power'
p4289
(lp4290
g26
asS'paintings'
p4291
(lp4292
g9
asS'Boys'
p4293
(lp4294
g23
asS'twins'
p4295
(lp4296
g23
asS'capital'
p4297
(lp4298
g188
asS'renders'
p4299
(lp4300
g53
asS'firms'
p4301
(lp4302
g53
asS'tournaments'
p4303
(lp4304
g122
asS'bird'
p4305
(lp4306
g448
asS'exercise'
p4307
(lp4308
g122
asS'body'
p4309
(lp4310
g286
ag39
asS'led'
p4311
(lp4312
g48
asS'chose'
p4313
(lp4314
g48
asS'elect'
p4315
(lp4316
g48
asS'leg'
p4317
(lp4318
g448
ag286
asS'beasts'
p4319
(lp4320
g448
asS'kidnapper'
p4321
(lp4322
g23
asS'slogans'
p4323
(lp4324
g185
asS'dictators'
p4325
(lp4326
g34
ag23
asS'jeans'
p4327
(lp4328
g12
asS'sing'
p4329
(lp4330
g48
ag185
asS'invented'
p4331
(lp4332
g48
asS'Croatian'
p4333
(lp4334
g5
asS'chocoloate'
p4335
(lp4336
g76
asS'Chinese'
p4337
(lp4338
g5
asS'host'
p4339
(lp4340
g23
asS'engine'
p4341
(lp4342
g12
asS'mottos'
p4343
(lp4344
g185
asS'products'
p4345
(lp4346
g12
asS'defeat'
p4347
(lp4348
g48
asS'Arabic'
p4349
(lp4350
g5
asS'spices'
p4351
(lp4352
g76
asS'makes'
p4353
(lp4354
g61
ag53
asS'maker'
p4355
(lp4356
g53
asS'initials'
p4357
(lp4358
g182
ag664
asS'composed'
p4359
(lp4360
g48
asS'Mountain'
p4361
(lp4362
g39
asS'named'
p4363
(lp4364
g371
asS'apple'
p4365
(lp4366
g76
asS'nearest'
p4367
(lp4368
g39
asS'presidents'
p4369
(lp4370
g34
ag23
asS'magnesiums'
p4371
(lp4372
g228
asS'outcomes'
p4373
(lp4374
g26
ag62
asS'addressee'
p4375
(lp4376
g23
asS'Hindi'
p4377
(lp4378
g5
asS'composer'
p4379
(lp4380
g23
asS'composes'
p4381
(lp4382
g48
asS'walruses'
p4383
(lp4384
g448
asS'tools'
p4385
(lp4386
g162
ag12
asS'use'
p4387
(lp4388
g26
ag132
asS'fee'
p4389
(lp4390
g42
asS'from'
p4391
(lp4392
g39
asS'hears'
p4393
(lp4394
g26
asS'Kelvin'
p4395
(lp4396
g296
asS'snacks'
p4397
(lp4398
g76
asS'ministers'
p4399
(lp4400
g34
ag23
asS'frog'
p4401
(lp4402
g448
asS'next'
p4403
(lp4404
g39
asS'narrate'
p4405
(lp4406
g48
asS'vehicle'
p4407
(lp4408
g12
ag6
asS'Horseman'
p4409
(lp4410
g23
asS'possession'
p4411
(lp4412
g39
asS'clever'
p4413
(lp4414
g48
asS'journalists'
p4415
(lp4416
g34
ag23
asS'trait'
p4417
(lp4418
g26
asS'feminists'
p4419
(lp4420
g34
ag23
asS'impress'
p4421
(lp4422
g62
asS'occurred'
p4423
(lp4424
g15
asS'infection'
p4425
(lp4426
g237
asS'rabbit'
p4427
(lp4428
g448
asS'baby'
p4429
(lp4430
g23
asS'appointed'
p4431
(lp4432
g48
asS'whisky'
p4433
(lp4434
g76
asS'balls'
p4435
(lp4436
g122
asS'animals'
p4437
(lp4438
g448
asS'athlete'
p4439
(lp4440
g122
asS'mesas'
p4441
(lp4442
g327
asS'prompts'
p4443
(lp4444
g61
asS'island'
p4445
(lp4446
g39
asS'athlets'
p4447
(lp4448
g34
ag23
asS'waterway'
p4449
(lp4450
g39
asS'proof'
p4451
(lp4452
g26
asS'point'
p4453
(lp4454
g327
ag85
asS'providers'
p4455
(lp4456
g53
asS'process'
p4457
(lp4458
g26
asS'pelvic'
p4459
(lp4460
g286
asS'tax'
p4461
(lp4462
g42
asS'purposes'
p4463
(lp4464
g61
asS'high'
p4465
(lp4466
g68
ag85
asS'professor'
p4467
(lp4468
g23
ag169
asS'Mr.'
p4469
(lp4470
g169
asS'his'
p4471
(lp4472
g23
asS'bones'
p4473
(lp4474
g286
asS'martyr'
p4475
(lp4476
g23
asS'sip'
p4477
(lp4478
g76
asS'syndrome'
p4479
(lp4480
g237
asS'locates'
p4481
(lp4482
g39
asS'traders'
p4483
(lp4484
g53
ag34
ag23
asS'located'
p4485
(lp4486
g39
asS'winners'
p4487
(lp4488
g48
ag34
ag23
asS'forest'
p4489
(lp4490
g39
asS'animal'
p4491
(lp4492
g448
asS'mysteries'
p4493
(lp4494
g26
asS'stand'
p4495
(lp4496
g182
ag149
ag1523
asS'fare'
p4497
(lp4498
g42
asS'buildings'
p4499
(lp4500
g39
asS'singular'
p4501
(lp4502
g80
asS'stop'
p4503
(lp4504
g39
asS'Disease'
p4505
(lp4506
g237
asS'ethnic'
p4507
(lp4508
g1122
asS'sculptures'
p4509
(lp4510
g9
asS'adjectives'
p4511
(lp4512
g80
asS'liner'
p4513
(lp4514
g6
asS'element'
p4515
(lp4516
g228
asS'contraceptives'
p4517
(lp4518
g237
asS'linen'
p4519
(lp4520
g228
asS'alloy'
p4521
(lp4522
g228
asS'furnish'
p4523
(lp4524
g53
asS'producer'
p4525
(lp4526
g53
ag12
asS'produces'
p4527
(lp4528
g53
asS'move'
p4529
(lp4530
g39
asS'meter'
p4531
(lp4532
g162
asS'produced'
p4533
(lp4534
g53
asS'own'
p4535
(lp4536
g48
ag23
asS'directs'
p4537
(lp4538
g48
asS'cruise'
p4539
(lp4540
g53
asS'galaxy'
p4541
(lp4542
g39
asS'write'
p4543
(lp4544
g48
ag9
asS'chosen'
p4545
(lp4546
g48
asS'ships'
p4547
(lp4548
g6
asS'housewife'
p4549
(lp4550
g23
asS'acres'
p4551
(lp4552
g257
asS'Director'
p4553
(lp4554
g169
asS'choose'
p4555
(lp4556
g48
asS'gymnasts'
p4557
(lp4558
g34
ag23
asS'communication'
p4559
(lp4560
g5
asS'latitude'
p4561
(lp4562
g85
asS'seafarer'
p4563
(lp4564
g23
asS'holiday'
p4565
(lp4566
g15
asS'physicians'
p4567
(lp4568
g34
ag23
asS'designs'
p4569
(lp4570
g48
ag26
asS'material'
p4571
(lp4572
g228
asS'snake'
p4573
(lp4574
g448
asS'kiss'
p4575
(lp4576
g48
asS'front'
p4577
(lp4578
g39
asS'day'
p4579
(lp4580
g65
asS'preschool'
p4581
(lp4582
g71
asS'articles'
p4583
(lp4584
g9
asS'airports'
p4585
(lp4586
g188
ag39
asS'Gujarati'
p4587
(lp4588
g5
asS'accompanies'
p4589
(lp4590
g48
asS'Why'
p4591
(lp4592
g1371
asS'cocker'
p4593
(lp4594
g448
asS'transmitted'
p4595
(lp4596
g237
asS'accompanied'
p4597
(lp4598
g48
asS'bills'
p4599
(lp4600
g42
asS'medicines'
p4601
(lp4602
g237
asS'glasses'
p4603
(lp4604
g12
asS'commonwealth'
p4605
(lp4606
g396
asS'cry'
p4607
(lp4608
g185
asS'doing'
p4609
(lp4610
g26
asS'strip'
p4611
(lp4612
g9
asS'sergeants'
p4613
(lp4614
g34
ag23
asS'sportsman'
p4615
(lp4616
g23
asS'society'
p4617
(lp4618
g16
asS'books'
p4619
(lp4620
g9
ag12
asS'Which'
p4621
(lp4622
g2033
asS'measure'
p4623
(lp4624
g132
asS'stimulants'
p4625
(lp4626
g237
asS'witness'
p4627
(lp4628
g23
asS'Babe'
p4629
(lp4630
g23
asS'kids'
p4631
(lp4632
g34
ag23
asS'announces'
p4633
(lp4634
g185
asS'desert'
p4635
(lp4636
g39
asS'strokes'
p4637
(lp4638
g132
asS'M.S.'
p4639
(lp4640
g169
asS'erupt'
p4641
(lp4642
g39
asS'performs'
p4643
(lp4644
g246
asS'cause'
p4645
(lp4646
g61
asS'announced'
p4647
(lp4648
g185
asS'Arawawk'
p4649
(lp4650
g5
asS'wines'
p4651
(lp4652
g76
asS'utensil'
p4653
(lp4654
g12
asS'galaxies'
p4655
(lp4656
g39
asS'diagonal'
p4657
(lp4658
g68
asS'approaches'
p4659
(lp4660
g132
asS'Senator'
p4661
(lp4662
g23
asS'distinctive'
p4663
(lp4664
g26
asS'princess'
p4665
(lp4666
g169
asS'cured'
p4667
(lp4668
g237
asS'dubbed'
p4669
(lp4670
g344
asS'phrases'
p4671
(lp4672
g185
ag80
asS'sculpteresses'
p4673
(lp4674
g34
asS'counterpart'
p4675
(lp4676
g371
asS'whales'
p4677
(lp4678
g448
asS'length'
p4679
(lp4680
g68
asS'birthday'
p4681
(lp4682
g65
asS'foreshortens'
p4683
(lp4684
g182
asS'protagonists'
p4685
(lp4686
g34
ag23
asS'retail'
p4687
(lp4688
g53
asS'stimulate'
p4689
(lp4690
g61
asS'yells'
p4691
(lp4692
g185
asS'scene'
p4693
(lp4694
g39
asS'owner'
p4695
(lp4696
g23
asS'inns'
p4697
(lp4698
g39
asS'warships'
p4699
(lp4700
g6
asS'horseman'
p4701
(lp4702
g23
asS'legislative'
p4703
(lp4704
g16
asS'Slavic'
p4705
(lp4706
g5
asS'Maori'
p4707
(lp4708
g5
asS'bears'
p4709
(lp4710
g448
asS'organzations'
p4711
(lp4712
g16
asS'birthstones'
p4713
(lp4714
g26
ag228
asS'sergeant'
p4715
(lp4716
g23
ag169
asS'tourists'
p4717
(lp4718
g39
asS'painful'
p4719
(lp4720
g237
asS'malady'
p4721
(lp4722
g237
asS'accompany'
p4723
(lp4724
g48
asS'motorcycle'
p4725
(lp4726
g12
ag6
asS'chemicals'
p4727
(lp4728
g237
ag228
asS'golfers'
p4729
(lp4730
g34
ag23
asS'institution'
p4731
(lp4732
g71
asS'Wonders'
p4733
(lp4734
g26
asS'loved'
p4735
(lp4736
g48
asS'photograph'
p4737
(lp4738
g9
asS'pre-school'
p4739
(lp4740
g71
asS'warfare'
p4741
(lp4742
g15
asS'respones'
p4743
(lp4744
g185
asS'shampoo'
p4745
(lp4746
g12
asS'calamity'
p4747
(lp4748
g15
asS'loves'
p4749
(lp4750
g48
asS'lover'
p4751
(lp4752
g23
asS'constructers'
p4753
(lp4754
g53
asS'sculpture'
p4755
(lp4756
g9
asS'fowl'
p4757
(lp4758
g448
asS'deodorant'
p4759
(lp4760
g12
asS'teenagers'
p4761
(lp4762
g34
ag23
asS'border'
p4763
(lp4764
g396
asS'sings'
p4765
(lp4766
g48
ag185
asS'documents'
p4767
(lp4768
g9
asS'overthrew'
p4769
(lp4770
g15
asS'dishes'
p4771
(lp4772
g76
asS'agency'
p4773
(lp4774
g16
asS'battles'
p4775
(lp4776
g15
asS'relatives'
p4777
(lp4778
g23
asS'which'
p4779
(lp4780
g2033
asS'imbibed'
p4781
(lp4782
g76
asS'techniques'
p4783
(lp4784
g132
asS'soap'
p4785
(lp4786
g12
asS'medals'
p4787
(lp4788
g162
asS'fuels'
p4789
(lp4790
g228
asS'combat'
p4791
(lp4792
g122
asS'who'
p4793
(lp4794
g29
asS'dubs'
p4795
(lp4796
g344
asS'Games'
p4797
(lp4798
g122
asS'device'
p4799
(lp4800
g162
ag12
asS'medal'
p4801
(lp4802
g162
asS'gallery'
p4803
(lp4804
g39
asS'prophecies'
p4805
(lp4806
g185
asS'consequences'
p4807
(lp4808
g62
asS'ensues'
p4809
(lp4810
g62
asS'disease'
p4811
(lp4812
g237
asS'looked'
p4813
(lp4814
g48
ag26
asS'movie'
p4815
(lp4816
g9
asS'brew'
p4817
(lp4818
g76
asS'ensued'
p4819
(lp4820
g62
asS'Whose'
p4821
(lp4822
g29
asS'atmosphere'
p4823
(lp4824
g162
asS'chances'
p4825
(lp4826
g215
asS'text'
p4827
(lp4828
g185
asS'indoor'
p4829
(lp4830
g122
asS'headquarter'
p4831
(lp4832
g39
asS'hamlet'
p4833
(lp4834
g188
asS'Rangers'
p4835
(lp4836
g23
asS'soldiers'
p4837
(lp4838
g34
ag23
asS'fear'
p4839
(lp4840
g237
ag162
asS'economist'
p4841
(lp4842
g23
asS'decade'
p4843
(lp4844
g65
asS'partners'
p4845
(lp4846
g34
ag23
asS'ear'
p4847
(lp4848
g286
asS'based'
p4849
(lp4850
g39
asS'combs'
p4851
(lp4852
g48
asS'bug'
p4853
(lp4854
g448
asS'webpage'
p4855
(lp4856
g39
asS'planted'
p4857
(lp4858
g77
asS'molecules'
p4859
(lp4860
g228
asS'fuel'
p4861
(lp4862
g228
asS'mayors'
p4863
(lp4864
g34
ag23
asS'meant'
p4865
(lp4866
g182
ag149
asS'accomplishs'
p4867
(lp4868
g48
asS'Finnish'
p4869
(lp4870
g5
asS'means'
p4871
(lp4872
g182
ag149
asS'canyons'
p4873
(lp4874
g39
asS'photography'
p4875
(lp4876
g9
asS'bear'
p4877
(lp4878
g448
asS'words'
p4879
(lp4880
g185
ag80
asS'buyer'
p4881
(lp4882
g53
asS'River'
p4883
(lp4884
g39
asS'procedures'
p4885
(lp4886
g132
asS'Italian'
p4887
(lp4888
g5
asS'symbols'
p4889
(lp4890
g58
asS'processes'
p4891
(lp4892
g26
asS'organ'
p4893
(lp4894
g286
asS'married'
p4895
(lp4896
g48
ag344
asS'taxes'
p4897
(lp4898
g42
asS'teams'
p4899
(lp4900
g16
asS'she'
p4901
(lp4902
g23
asS'waterfalls'
p4903
(lp4904
g39
asS'tunes'
p4905
(lp4906
g9
asS'Broadway'
p4907
(lp4908
g9
asS'marries'
p4909
(lp4910
g48
asS'generations'
p4911
(lp4912
g162
asS'looks'
p4913
(lp4914
g48
ag26
asS'requirement'
p4915
(lp4916
g26
asS'breweries'
p4917
(lp4918
g39
asS'accuses'
p4919
(lp4920
g48
asS'turkeys'
p4921
(lp4922
g448
asS'accused'
p4923
(lp4924
g48
asS'signed'
p4925
(lp4926
g48
asS'revelations'
p4927
(lp4928
g185
asS'insurances'
p4929
(lp4930
g162
asS'seafarers'
p4931
(lp4932
g23
asS'laureate'
p4933
(lp4934
g23
asS'decimeters'
p4935
(lp4936
g257
asS'written'
p4937
(lp4938
g48
ag9
asS'limit'
p4939
(lp4940
g9
ag215
asS'email'
p4941
(lp4942
g39
asS'bought'
p4943
(lp4944
g53
asS'monarchs'
p4945
(lp4946
g34
ag23
asS'ends'
p4947
(lp4948
g62
asS'explosive'
p4949
(lp4950
g162
ag228
asS'ability'
p4951
(lp4952
g162
asS'bridges'
p4953
(lp4954
g39
asS'importance'
p4955
(lp4956
g26
asS'Serbo-Croatian'
p4957
(lp4958
g5
asS'Gaelic'
p4959
(lp4960
g5
asS'job'
p4961
(lp4962
g246
asS'police'
p4963
(lp4964
g16
asS'staring'
p4965
(lp4966
g48
asS'figured'
p4967
(lp4968
g48
asS'limits'
p4969
(lp4970
g9
ag215
asS'ethnicities'
p4971
(lp4972
g16
asS'minutes'
p4973
(lp4974
g257
asS'equal'
p4975
(lp4976
g85
asS'drug'
p4977
(lp4978
g237
asS'figures'
p4979
(lp4980
g48
ag34
ag23
asS'sexes'
p4981
(lp4982
g162
asS'swallow'
p4983
(lp4984
g76
asS'grounds'
p4985
(lp4986
g61
asS'subtitle'
p4987
(lp4988
g9
asS'wall'
p4989
(lp4990
g39
asS'lyricist'
p4991
(lp4992
g23
asS'celestial'
p4993
(lp4994
g39
asS'symphonies'
p4995
(lp4996
g9
asS'kings'
p4997
(lp4998
g34
ag23
asS'poem'
p4999
(lp5000
g9
asS'provinces'
p5001
(lp5002
g2110
asS'playwrights'
p5003
(lp5004
g34
ag23
asS'adjective'
p5005
(lp5006
g80
asS'swimmer'
p5007
(lp5008
g23
asS'hunters'
p5009
(lp5010
g34
ag23
asS'trademark'
p5011
(lp5012
g53
ag58
asS'copies'
p5013
(lp5014
g9
asS'literal'
p5015
(lp5016
g149
asS'treat'
p5017
(lp5018
g237
ag76
asS'elects'
p5019
(lp5020
g48
asS'poet'
p5021
(lp5022
g9
ag23
asS'rums'
p5023
(lp5024
g76
asS'athlet'
p5025
(lp5026
g23
asS'define'
p5027
(lp5028
g149
asS'senses'
p5029
(lp5030
g162
asS'general'
p5031
(lp5032
g23
asS'horsemen'
p5033
(lp5034
g23
asS'painted'
p5035
(lp5036
g48
asS'tense'
p5037
(lp5038
g162
asS'chess'
p5039
(lp5040
g122
asS'ravens'
p5041
(lp5042
g448
asS'painter'
p5043
(lp5044
g23
asS'novel'
p5045
(lp5046
g9
asS'couple'
p5047
(lp5048
g23
asS'appearance'
p5049
(lp5050
g26
asS'inn'
p5051
(lp5052
g39
asS'value'
p5053
(lp5054
g42
asS'General'
p5055
(lp5056
g169
asS'middle'
p5057
(lp5058
g344
asS'owns'
p5059
(lp5060
g48
asS'Sergeant'
p5061
(lp5062
g169
asS'cereals'
p5063
(lp5064
g76
asS'file'
p5065
(lp5066
g162
asS'resident'
p5067
(lp5068
g23
asS'site'
p5069
(lp5070
g39
asS'PhD.'
p5071
(lp5072
g169
asS'malls'
p5073
(lp5074
g39
asS'partner'
p5075
(lp5076
g23
asS'portray'
p5077
(lp5078
g48
asS'terrorist'
p5079
(lp5080
g16
ag23
asS'stadiums'
p5081
(lp5082
g39
asS'identities'
p5083
(lp5084
g23
asS'landmarks'
p5085
(lp5086
g39
asS'administration'
p5087
(lp5088
g16
asS'Bear'
p5089
(lp5090
g448
asS'member'
p5091
(lp5092
g23
asS'parts'
p5093
(lp5094
g39
asS'speaker'
p5095
(lp5096
g5
ag23
asS'flower'
p5097
(lp5098
g77
asS'geographical'
p5099
(lp5100
g39
asS'largest'
p5101
(lp5102
g188
ag396
ag39
asS'habitats'
p5103
(lp5104
g39
asS'party'
p5105
(lp5106
g16
asS'ball'
p5107
(lp5108
g122
asS'novels'
p5109
(lp5110
g9
asS'drink'
p5111
(lp5112
g76
asS'effect'
p5113
(lp5114
g26
ag62
asS'beast'
p5115
(lp5116
g448
asS'coaches'
p5117
(lp5118
g34
ag23
asS'student'
p5119
(lp5120
g23
asS'sisters'
p5121
(lp5122
g34
ag23
asS'whale'
p5123
(lp5124
g448
asS'scholars'
p5125
(lp5126
g34
ag23
asS'steals'
p5127
(lp5128
g42
asS'premiers'
p5129
(lp5130
g34
ag23
asS'center'
p5131
(lp5132
g39
asS'builder'
p5133
(lp5134
g53
asS'Norse'
p5135
(lp5136
g5
asS'thought'
p5137
(lp5138
g48
asS'corporation'
p5139
(lp5140
g53
asS'position'
p5141
(lp5142
g246
ag169
asS'creators'
p5143
(lp5144
g53
ag34
ag23
asS'alloys'
p5145
(lp5146
g228
asS'advertises'
p5147
(lp5148
g53
asS'advertiser'
p5149
(lp5150
g53
asS'stores'
p5151
(lp5152
g53
asS'nicknames'
p5153
(lp5154
g344
ag371
asS'satellites'
p5155
(lp5156
g162
ag12
asS'rocket'
p5157
(lp5158
g6
asS'rooms'
p5159
(lp5160
g39
asS'advertised'
p5161
(lp5162
g53
asS'years'
p5163
(lp5164
g257
asS'graduate'
p5165
(lp5166
g71
asS'consume'
p5167
(lp5168
g76
asS'Company'
p5169
(lp5170
g53
asS'Turkish'
p5171
(lp5172
g5
asS'lake'
p5173
(lp5174
g39
asS'elegible'
p5175
(lp5176
g48
asS'extends'
p5177
(lp5178
g68
asS'citizen'
p5179
(lp5180
g23
asS'usage'
p5181
(lp5182
g26
asS'match'
p5183
(lp5184
g122
asS'raven'
p5185
(lp5186
g448
asS'government'
p5187
(lp5188
g16
asS'chancellor'
p5189
(lp5190
g169
asS'sportscasters'
p5191
(lp5192
g34
ag23
asS'historic'
p5193
(lp5194
g15
asS'know'
p5195
(lp5196
g48
ag26
asS'catchers'
p5197
(lp5198
g34
ag23
asS'environmentalists'
p5199
(lp5200
g34
ag23
asS'name'
p5201
(lp5202
g371
asS'like'
p5203
(lp5204
g26
asS'onion'
p5205
(lp5206
g76
asS'sizes'
p5207
(lp5208
g1858
asS'chairs'
p5209
(lp5210
g23
asS'candy'
p5211
(lp5212
g76
asS'gangsters'
p5213
(lp5214
g34
ag23
asS'badminton'
p5215
(lp5216
g122
asS'hosts'
p5217
(lp5218
g34
ag23
asS'payments'
p5219
(lp5220
g42
asS'starred'
p5221
(lp5222
g48
ag9
ag23
asS'works'
p5223
(lp5224
g48
ag9
ag246
asS'page'
p5225
(lp5226
g39
asS'wonders'
p5227
(lp5228
g26
asS'habitat'
p5229
(lp5230
g39
asS'phenomena'
p5231
(lp5232
g15
asS'library'
p5233
(lp5234
g39
asS'hair'
p5235
(lp5236
g286
asS'export'
p5237
(lp5238
g53
asS'Editor'
p5239
(lp5240
g169
asS'home'
p5241
(lp5242
g188
ag396
ag39
asS'novelist'
p5243
(lp5244
g23
asS'transport'
p5245
(lp5246
g53
asS'happens'
p5247
(lp5248
g26
ag15
asS'competitor'
p5249
(lp5250
g53
asS'shrub'
p5251
(lp5252
g77
asS'lead'
p5253
(lp5254
g48
asS'dinars'
p5255
(lp5256
g257
asS'leaded'
p5257
(lp5258
g48
asS'hurricane'
p5259
(lp5260
g15
asS'salaries'
p5261
(lp5262
g42
asS'yachts'
p5263
(lp5264
g6
asS'does'
p5265
(lp5266
g761
ag246
asS'rockets'
p5267
(lp5268
g6
asS'chains'
p5269
(lp5270
g53
asS'leader'
p5271
(lp5272
g23
asS'kidnappers'
p5273
(lp5274
g34
ag23
asS'locate'
p5275
(lp5276
g39
asS'poets'
p5277
(lp5278
g34
ag23
asS'acronym'
p5279
(lp5280
g182
asS'monetary'
p5281
(lp5282
g42
asS'murdered'
p5283
(lp5284
g48
asS'nationalities'
p5285
(lp5286
g396
asS'counties'
p5287
(lp5288
g188
ag39
asS'about'
p5289
(lp5290
g26
asS'Superbowl'
p5291
(lp5292
g122
asS'engines'
p5293
(lp5294
g12
asS'shipwreck'
p5295
(lp5296
g6
asS'delicacies'
p5297
(lp5298
g76
asS'seeds'
p5299
(lp5300
g77
asS'tongue'
p5301
(lp5302
g286
ag5
asS'emperor'
p5303
(lp5304
g23
ag169
asS'dub'
p5305
(lp5306
g344
asS'software'
p5307
(lp5308
g9
asS'cultivates'
p5309
(lp5310
g77
asS'celebrations'
p5311
(lp5312
g15
asS'letters'
p5313
(lp5314
g664
asS'political'
p5315
(lp5316
g16
asS'possessions'
p5317
(lp5318
g39
asS'chronic'
p5319
(lp5320
g237
asS'weather'
p5321
(lp5322
g26
asS'champ'
p5323
(lp5324
g23
asS'female'
p5325
(lp5326
g448
ag23
asS'artists'
p5327
(lp5328
g34
ag23
asS'swimmers'
p5329
(lp5330
g23
asS'lightyears'
p5331
(lp5332
g257
asS'prompted'
p5333
(lp5334
g61
asS'Mountains'
p5335
(lp5336
g39
asS'viroid'
p5337
(lp5338
g237
asS'ridge'
p5339
(lp5340
g39
ag327
asS'brides'
p5341
(lp5342
g34
ag23
asS'vegetables'
p5343
(lp5344
g76
ag77
asS'populated'
p5345
(lp5346
g188
ag396
ag39
asS'captains'
p5347
(lp5348
g23
asS'imbibe'
p5349
(lp5350
g76
asS'powdered'
p5351
(lp5352
g76
asS'breeding'
p5353
(lp5354
g448
asS'function'
p5355
(lp5356
g61
asS'buy'
p5357
(lp5358
g53
ag53
asS'aircraft'
p5359
(lp5360
g6
asS'brand'
p5361
(lp5362
g53
ag12
asS'sequel'
p5363
(lp5364
g9
asS'organzation'
p5365
(lp5366
g16
asS'volume'
p5367
(lp5368
g1858
asS'construction'
p5369
(lp5370
g39
asS'plague'
p5371
(lp5372
g237
asS'courts'
p5373
(lp5374
g16
ag39
ag122
asS'beat'
p5375
(lp5376
g122
asS'highest'
p5377
(lp5378
g68
ag39
ag327
asS'eat'
p5379
(lp5380
g76
asS'he'
p5381
(lp5382
g23
asS'made'
p5383
(lp5384
g61
ag53
asS'wise'
p5385
(lp5386
g48
asS'places'
p5387
(lp5388
g39
ag39
asS'super-team'
p5389
(lp5390
g16
asS'birthdate'
p5391
(lp5392
g65
asS'record'
p5393
(lp5394
g85
asS'below'
p5395
(lp5396
g39
asS'frequency'
p5397
(lp5398
g85
asS'stories'
p5399
(lp5400
g9
ag26
asS'condiment'
p5401
(lp5402
g76
asS'skating'
p5403
(lp5404
g122
asS'rabbits'
p5405
(lp5406
g448
asS'maneuvers'
p5407
(lp5408
g132
asS'contribute'
p5409
(lp5410
g61
asS'kisses'
p5411
(lp5412
g48
asS'Lake'
p5413
(lp5414
g39
asS'utensils'
p5415
(lp5416
g12
asS'crusade'
p5417
(lp5418
g61
asS'referee'
p5419
(lp5420
g23
asS'periods'
p5421
(lp5422
g15
asS'webpages'
p5423
(lp5424
g39
asS'crystals'
p5425
(lp5426
g228
asS'kissed'
p5427
(lp5428
g48
asS'domesticated'
p5429
(lp5430
g448
asS'hymns'
p5431
(lp5432
g9
asS'effected'
p5433
(lp5434
g62
asS'functions'
p5435
(lp5436
g61
asS'ingredients'
p5437
(lp5438
g228
asS'trials'
p5439
(lp5440
g15
asS'percent'
p5441
(lp5442
g215
asS'forests'
p5443
(lp5444
g39
asS'disasters'
p5445
(lp5446
g15
asS'book'
p5447
(lp5448
g9
ag12
asS'ledge'
p5449
(lp5450
g327
asS'compete'
p5451
(lp5452
g122
asS'percents'
p5453
(lp5454
g215
asS'vermouth'
p5455
(lp5456
g76
asS'stimulant'
p5457
(lp5458
g237
asS'convicts'
p5459
(lp5460
g34
ag23
asS'star'
p5461
(lp5462
g48
ag9
ag39
ag23
asS'quarts'
p5463
(lp5464
g257
asS'grandmother'
p5465
(lp5466
g23
asS'stay'
p5467
(lp5468
g441
asS'risked'
p5469
(lp5470
g48
asS'chance'
p5471
(lp5472
g215
asS'Congressman'
p5473
(lp5474
g23
asS'intaked'
p5475
(lp5476
g76
asS'friends'
p5477
(lp5478
g34
ag23
asS'appoint'
p5479
(lp5480
g48
asS'contraceptive'
p5481
(lp5482
g237
asS'ranks'
p5483
(lp5484
g1207
asS'factors'
p5485
(lp5486
g61
asS'lasted'
p5487
(lp5488
g3680
asS'rule'
p5489
(lp5490
g48
ag26
asS'portion'
p5491
(lp5492
g215
asS'craft'
p5493
(lp5494
g6
asS'heroins'
p5495
(lp5496
g34
asS'Spanish'
p5497
(lp5498
g5
asS'yell'
p5499
(lp5500
g185
asI1
t.